
rv32uc-p-rvc:     file format elf32-littleriscv


Disassembly of section .text.init:

00000000 <_start>:
       0:	1480006f          	j	148 <reset_vector>

00000004 <trap_vector>:
       4:	34051073          	csrw	mscratch,a0
       8:	00004517          	auipc	a0,0x4
       c:	ff850513          	addi	a0,a0,-8 # 4000 <test_trap_data>
      10:	01e52023          	sw	t5,0(a0)
      14:	01f52223          	sw	t6,4(a0)
      18:	34202f73          	csrr	t5,mcause
      1c:	040f4a63          	bltz	t5,70 <other_interrupts>
      20:	00800f93          	li	t6,8
      24:	07ff0a63          	beq	t5,t6,98 <write_tohost>
      28:	00900f93          	li	t6,9
      2c:	07ff0663          	beq	t5,t6,98 <write_tohost>
      30:	00b00f93          	li	t6,11
      34:	07ff0263          	beq	t5,t6,98 <write_tohost>
      38:	00100f93          	li	t6,1
      3c:	0bff0c63          	beq	t5,t6,f4 <ifetch_error_handler>
      40:	00500f93          	li	t6,5
      44:	0dff0663          	beq	t5,t6,110 <load_error_handler>
      48:	00700f93          	li	t6,7
      4c:	0fff0063          	beq	t5,t6,12c <store_error_handler>
      50:	00000f17          	auipc	t5,0x0
      54:	fb0f0f13          	addi	t5,t5,-80 # 0 <_start>
      58:	000f0463          	beqz	t5,60 <trap_vector+0x5c>
      5c:	000f0067          	jr	t5
      60:	34202f73          	csrr	t5,mcause
      64:	000f5463          	bgez	t5,6c <handle_exception>
      68:	0040006f          	j	6c <handle_exception>

0000006c <handle_exception>:
      6c:	0280006f          	j	94 <other_interrupts+0x24>

00000070 <other_interrupts>:
      70:	80000fb7          	lui	t6,0x80000
      74:	003f8f93          	addi	t6,t6,3 # 80000003 <_end+0x7fffbff3>
      78:	05ff0663          	beq	t5,t6,c4 <sft_irq_handler>
      7c:	80000fb7          	lui	t6,0x80000
      80:	007f8f93          	addi	t6,t6,7 # 80000007 <_end+0x7fffbff7>
      84:	05ff0c63          	beq	t5,t6,dc <tmr_irq_handler>
      88:	80000fb7          	lui	t6,0x80000
      8c:	00bf8f93          	addi	t6,t6,11 # 8000000b <_end+0x7fffbffb>
      90:	01ff0e63          	beq	t5,t6,ac <ext_irq_handler>
      94:	5391e193          	ori	gp,gp,1337

00000098 <write_tohost>:
      98:	00800513          	li	a0,8
      9c:	30052073          	csrs	mstatus,a0
      a0:	00003f17          	auipc	t5,0x3
      a4:	f63f2023          	sw	gp,-160(t5) # 3000 <tohost>
      a8:	ff1ff06f          	j	98 <write_tohost>

000000ac <ext_irq_handler>:
      ac:	00004517          	auipc	a0,0x4
      b0:	f5450513          	addi	a0,a0,-172 # 4000 <test_trap_data>
      b4:	00052f03          	lw	t5,0(a0)
      b8:	00452f83          	lw	t6,4(a0)
      bc:	34002573          	csrr	a0,mscratch
      c0:	30200073          	mret

000000c4 <sft_irq_handler>:
      c4:	00004517          	auipc	a0,0x4
      c8:	f3c50513          	addi	a0,a0,-196 # 4000 <test_trap_data>
      cc:	00052f03          	lw	t5,0(a0)
      d0:	00452f83          	lw	t6,4(a0)
      d4:	34002573          	csrr	a0,mscratch
      d8:	30200073          	mret

000000dc <tmr_irq_handler>:
      dc:	00004517          	auipc	a0,0x4
      e0:	f2450513          	addi	a0,a0,-220 # 4000 <test_trap_data>
      e4:	00052f03          	lw	t5,0(a0)
      e8:	00452f83          	lw	t6,4(a0)
      ec:	34002573          	csrr	a0,mscratch
      f0:	30200073          	mret

000000f4 <ifetch_error_handler>:
      f4:	00004517          	auipc	a0,0x4
      f8:	f0c50513          	addi	a0,a0,-244 # 4000 <test_trap_data>
      fc:	00052f03          	lw	t5,0(a0)
     100:	00452f83          	lw	t6,4(a0)
     104:	34302573          	csrr	a0,mbadaddr
     108:	34002573          	csrr	a0,mscratch
     10c:	30200073          	mret

00000110 <load_error_handler>:
     110:	00004517          	auipc	a0,0x4
     114:	ef050513          	addi	a0,a0,-272 # 4000 <test_trap_data>
     118:	00052f03          	lw	t5,0(a0)
     11c:	00452f83          	lw	t6,4(a0)
     120:	34302573          	csrr	a0,mbadaddr
     124:	34002573          	csrr	a0,mscratch
     128:	30200073          	mret

0000012c <store_error_handler>:
     12c:	00004517          	auipc	a0,0x4
     130:	ed450513          	addi	a0,a0,-300 # 4000 <test_trap_data>
     134:	00052f03          	lw	t5,0(a0)
     138:	00452f83          	lw	t6,4(a0)
     13c:	34302573          	csrr	a0,mbadaddr
     140:	34002573          	csrr	a0,mscratch
     144:	30200073          	mret

00000148 <reset_vector>:
     148:	00000f13          	li	t5,0
     14c:	00000f93          	li	t6,0
     150:	f1402573          	csrr	a0,mhartid
     154:	00051063          	bnez	a0,154 <reset_vector+0xc>
     158:	00000193          	li	gp,0
     15c:	00000297          	auipc	t0,0x0
     160:	ea828293          	addi	t0,t0,-344 # 4 <trap_vector>
     164:	00800513          	li	a0,8
     168:	30052073          	csrs	mstatus,a0
     16c:	fff00513          	li	a0,-1
     170:	30452073          	csrs	mie,a0
     174:	30529073          	csrw	mtvec,t0

00000178 <post_mtvec>:
     178:	00000297          	auipc	t0,0x0
     17c:	e8828293          	addi	t0,t0,-376 # 0 <_start>
     180:	00028e63          	beqz	t0,19c <post_mtvec+0x24>
     184:	10529073          	csrw	stvec,t0
     188:	0000b2b7          	lui	t0,0xb
     18c:	10928293          	addi	t0,t0,265 # b109 <_end+0x70f9>
     190:	30229073          	csrw	medeleg,t0
     194:	30202373          	csrr	t1,medeleg
     198:	ec629ae3          	bne	t0,t1,6c <handle_exception>
     19c:	30005073          	csrwi	mstatus,0
     1a0:	08000513          	li	a0,128
     1a4:	30052073          	csrs	mstatus,a0
     1a8:	00000513          	li	a0,0
     1ac:	bfc51073          	csrw	0xbfc,a0
     1b0:	0000100f          	fence.i
     1b4:	000012b7          	lui	t0,0x1
     1b8:	a0028293          	addi	t0,t0,-1536 # a00 <data+0x760>

000001bc <waitloop1>:
     1bc:	fff28293          	addi	t0,t0,-1
     1c0:	fe029ee3          	bnez	t0,1bc <waitloop1>
     1c4:	100083b7          	lui	t2,0x10008
     1c8:	00838393          	addi	t2,t2,8 # 10008008 <_end+0x10003ff8>
     1cc:	0003a283          	lw	t0,0(t2)
     1d0:	00040337          	lui	t1,0x40
     1d4:	fff34313          	not	t1,t1
     1d8:	0062f2b3          	and	t0,t0,t1
     1dc:	0053a023          	sw	t0,0(t2)
     1e0:	40000293          	li	t0,1024

000001e4 <waitloop2>:
     1e4:	fff28293          	addi	t0,t0,-1
     1e8:	0003ae03          	lw	t3,0(t2)
     1ec:	fe029ce3          	bnez	t0,1e4 <waitloop2>
     1f0:	0003a283          	lw	t0,0(t2)
     1f4:	00040337          	lui	t1,0x40
     1f8:	0062e2b3          	or	t0,t0,t1
     1fc:	0053a023          	sw	t0,0(t2)
     200:	0003a283          	lw	t0,0(t2)
     204:	00100313          	li	t1,1
     208:	0062e2b3          	or	t0,t0,t1
     20c:	0053a023          	sw	t0,0(t2)
     210:	0003a283          	lw	t0,0(t2)
     214:	02000313          	li	t1,32
     218:	0062e2b3          	or	t0,t0,t1
     21c:	0053a023          	sw	t0,0(t2)
     220:	000012b7          	lui	t0,0x1
     224:	a0028293          	addi	t0,t0,-1536 # a00 <data+0x760>

00000228 <waitloop3>:
     228:	fff28293          	addi	t0,t0,-1
     22c:	fe029ee3          	bnez	t0,228 <waitloop3>
     230:	0003a283          	lw	t0,0(t2)
     234:	00040337          	lui	t1,0x40
     238:	fff34313          	not	t1,t1
     23c:	0062f2b3          	and	t0,t0,t1
     240:	0053a023          	sw	t0,0(t2)
     244:	10000293          	li	t0,256

00000248 <waitloop4>:
     248:	fff28293          	addi	t0,t0,-1
     24c:	fe029ee3          	bnez	t0,248 <waitloop4>
     250:	100083b7          	lui	t2,0x10008
     254:	00c38393          	addi	t2,t2,12 # 1000800c <_end+0x10003ffc>
     258:	0003a283          	lw	t0,0(t2)
     25c:	10000313          	li	t1,256
     260:	fff34313          	not	t1,t1
     264:	0062f2b3          	and	t0,t0,t1
     268:	00200313          	li	t1,2
     26c:	0062e2b3          	or	t0,t0,t1
     270:	0053a023          	sw	t0,0(t2)
     274:	40000293          	li	t0,1024
     278:	00000297          	auipc	t0,0x0
     27c:	01428293          	addi	t0,t0,20 # 28c <waitloop4+0x44>
     280:	34129073          	csrw	mepc,t0
     284:	f1402573          	csrr	a0,mhartid
     288:	30200073          	mret
     28c:	00200193          	li	gp,2
     290:	29a00593          	li	a1,666
     294:	00100613          	li	a2,1

00000298 <test_2>:
     298:	5670106f          	j	1ffe <data+0x1d5e>
     29c:	00000013          	nop

000002a0 <data>:
     2a0:	3210                	fld	fa2,32(a2)
     2a2:	7654                	flw	fa3,44(a2)
     2a4:	ba98                	fsd	fa4,48(a3)
     2a6:	fedc                	fsw	fa5,60(a3)
     2a8:	3210                	fld	fa2,32(a2)
     2aa:	7654                	flw	fa3,44(a2)
     2ac:	ba98                	fsd	fa4,48(a3)
     2ae:	fedc                	fsw	fa5,60(a3)
     2b0:	00000013          	nop
     2b4:	00000013          	nop
     2b8:	00000013          	nop
     2bc:	00000013          	nop
     2c0:	00000013          	nop
     2c4:	00000013          	nop
     2c8:	00000013          	nop
     2cc:	00000013          	nop
     2d0:	00000013          	nop
     2d4:	00000013          	nop
     2d8:	00000013          	nop
     2dc:	00000013          	nop
     2e0:	00000013          	nop
     2e4:	00000013          	nop
     2e8:	00000013          	nop
     2ec:	00000013          	nop
     2f0:	00000013          	nop
     2f4:	00000013          	nop
     2f8:	00000013          	nop
     2fc:	00000013          	nop
     300:	00000013          	nop
     304:	00000013          	nop
     308:	00000013          	nop
     30c:	00000013          	nop
     310:	00000013          	nop
     314:	00000013          	nop
     318:	00000013          	nop
     31c:	00000013          	nop
     320:	00000013          	nop
     324:	00000013          	nop
     328:	00000013          	nop
     32c:	00000013          	nop
     330:	00000013          	nop
     334:	00000013          	nop
     338:	00000013          	nop
     33c:	00000013          	nop
     340:	00000013          	nop
     344:	00000013          	nop
     348:	00000013          	nop
     34c:	00000013          	nop
     350:	00000013          	nop
     354:	00000013          	nop
     358:	00000013          	nop
     35c:	00000013          	nop
     360:	00000013          	nop
     364:	00000013          	nop
     368:	00000013          	nop
     36c:	00000013          	nop
     370:	00000013          	nop
     374:	00000013          	nop
     378:	00000013          	nop
     37c:	00000013          	nop
     380:	00000013          	nop
     384:	00000013          	nop
     388:	00000013          	nop
     38c:	00000013          	nop
     390:	00000013          	nop
     394:	00000013          	nop
     398:	00000013          	nop
     39c:	00000013          	nop
     3a0:	00000013          	nop
     3a4:	00000013          	nop
     3a8:	00000013          	nop
     3ac:	00000013          	nop
     3b0:	00000013          	nop
     3b4:	00000013          	nop
     3b8:	00000013          	nop
     3bc:	00000013          	nop
     3c0:	00000013          	nop
     3c4:	00000013          	nop
     3c8:	00000013          	nop
     3cc:	00000013          	nop
     3d0:	00000013          	nop
     3d4:	00000013          	nop
     3d8:	00000013          	nop
     3dc:	00000013          	nop
     3e0:	00000013          	nop
     3e4:	00000013          	nop
     3e8:	00000013          	nop
     3ec:	00000013          	nop
     3f0:	00000013          	nop
     3f4:	00000013          	nop
     3f8:	00000013          	nop
     3fc:	00000013          	nop
     400:	00000013          	nop
     404:	00000013          	nop
     408:	00000013          	nop
     40c:	00000013          	nop
     410:	00000013          	nop
     414:	00000013          	nop
     418:	00000013          	nop
     41c:	00000013          	nop
     420:	00000013          	nop
     424:	00000013          	nop
     428:	00000013          	nop
     42c:	00000013          	nop
     430:	00000013          	nop
     434:	00000013          	nop
     438:	00000013          	nop
     43c:	00000013          	nop
     440:	00000013          	nop
     444:	00000013          	nop
     448:	00000013          	nop
     44c:	00000013          	nop
     450:	00000013          	nop
     454:	00000013          	nop
     458:	00000013          	nop
     45c:	00000013          	nop
     460:	00000013          	nop
     464:	00000013          	nop
     468:	00000013          	nop
     46c:	00000013          	nop
     470:	00000013          	nop
     474:	00000013          	nop
     478:	00000013          	nop
     47c:	00000013          	nop
     480:	00000013          	nop
     484:	00000013          	nop
     488:	00000013          	nop
     48c:	00000013          	nop
     490:	00000013          	nop
     494:	00000013          	nop
     498:	00000013          	nop
     49c:	00000013          	nop
     4a0:	00000013          	nop
     4a4:	00000013          	nop
     4a8:	00000013          	nop
     4ac:	00000013          	nop
     4b0:	00000013          	nop
     4b4:	00000013          	nop
     4b8:	00000013          	nop
     4bc:	00000013          	nop
     4c0:	00000013          	nop
     4c4:	00000013          	nop
     4c8:	00000013          	nop
     4cc:	00000013          	nop
     4d0:	00000013          	nop
     4d4:	00000013          	nop
     4d8:	00000013          	nop
     4dc:	00000013          	nop
     4e0:	00000013          	nop
     4e4:	00000013          	nop
     4e8:	00000013          	nop
     4ec:	00000013          	nop
     4f0:	00000013          	nop
     4f4:	00000013          	nop
     4f8:	00000013          	nop
     4fc:	00000013          	nop
     500:	00000013          	nop
     504:	00000013          	nop
     508:	00000013          	nop
     50c:	00000013          	nop
     510:	00000013          	nop
     514:	00000013          	nop
     518:	00000013          	nop
     51c:	00000013          	nop
     520:	00000013          	nop
     524:	00000013          	nop
     528:	00000013          	nop
     52c:	00000013          	nop
     530:	00000013          	nop
     534:	00000013          	nop
     538:	00000013          	nop
     53c:	00000013          	nop
     540:	00000013          	nop
     544:	00000013          	nop
     548:	00000013          	nop
     54c:	00000013          	nop
     550:	00000013          	nop
     554:	00000013          	nop
     558:	00000013          	nop
     55c:	00000013          	nop
     560:	00000013          	nop
     564:	00000013          	nop
     568:	00000013          	nop
     56c:	00000013          	nop
     570:	00000013          	nop
     574:	00000013          	nop
     578:	00000013          	nop
     57c:	00000013          	nop
     580:	00000013          	nop
     584:	00000013          	nop
     588:	00000013          	nop
     58c:	00000013          	nop
     590:	00000013          	nop
     594:	00000013          	nop
     598:	00000013          	nop
     59c:	00000013          	nop
     5a0:	00000013          	nop
     5a4:	00000013          	nop
     5a8:	00000013          	nop
     5ac:	00000013          	nop
     5b0:	00000013          	nop
     5b4:	00000013          	nop
     5b8:	00000013          	nop
     5bc:	00000013          	nop
     5c0:	00000013          	nop
     5c4:	00000013          	nop
     5c8:	00000013          	nop
     5cc:	00000013          	nop
     5d0:	00000013          	nop
     5d4:	00000013          	nop
     5d8:	00000013          	nop
     5dc:	00000013          	nop
     5e0:	00000013          	nop
     5e4:	00000013          	nop
     5e8:	00000013          	nop
     5ec:	00000013          	nop
     5f0:	00000013          	nop
     5f4:	00000013          	nop
     5f8:	00000013          	nop
     5fc:	00000013          	nop
     600:	00000013          	nop
     604:	00000013          	nop
     608:	00000013          	nop
     60c:	00000013          	nop
     610:	00000013          	nop
     614:	00000013          	nop
     618:	00000013          	nop
     61c:	00000013          	nop
     620:	00000013          	nop
     624:	00000013          	nop
     628:	00000013          	nop
     62c:	00000013          	nop
     630:	00000013          	nop
     634:	00000013          	nop
     638:	00000013          	nop
     63c:	00000013          	nop
     640:	00000013          	nop
     644:	00000013          	nop
     648:	00000013          	nop
     64c:	00000013          	nop
     650:	00000013          	nop
     654:	00000013          	nop
     658:	00000013          	nop
     65c:	00000013          	nop
     660:	00000013          	nop
     664:	00000013          	nop
     668:	00000013          	nop
     66c:	00000013          	nop
     670:	00000013          	nop
     674:	00000013          	nop
     678:	00000013          	nop
     67c:	00000013          	nop
     680:	00000013          	nop
     684:	00000013          	nop
     688:	00000013          	nop
     68c:	00000013          	nop
     690:	00000013          	nop
     694:	00000013          	nop
     698:	00000013          	nop
     69c:	00000013          	nop
     6a0:	00000013          	nop
     6a4:	00000013          	nop
     6a8:	00000013          	nop
     6ac:	00000013          	nop
     6b0:	00000013          	nop
     6b4:	00000013          	nop
     6b8:	00000013          	nop
     6bc:	00000013          	nop
     6c0:	00000013          	nop
     6c4:	00000013          	nop
     6c8:	00000013          	nop
     6cc:	00000013          	nop
     6d0:	00000013          	nop
     6d4:	00000013          	nop
     6d8:	00000013          	nop
     6dc:	00000013          	nop
     6e0:	00000013          	nop
     6e4:	00000013          	nop
     6e8:	00000013          	nop
     6ec:	00000013          	nop
     6f0:	00000013          	nop
     6f4:	00000013          	nop
     6f8:	00000013          	nop
     6fc:	00000013          	nop
     700:	00000013          	nop
     704:	00000013          	nop
     708:	00000013          	nop
     70c:	00000013          	nop
     710:	00000013          	nop
     714:	00000013          	nop
     718:	00000013          	nop
     71c:	00000013          	nop
     720:	00000013          	nop
     724:	00000013          	nop
     728:	00000013          	nop
     72c:	00000013          	nop
     730:	00000013          	nop
     734:	00000013          	nop
     738:	00000013          	nop
     73c:	00000013          	nop
     740:	00000013          	nop
     744:	00000013          	nop
     748:	00000013          	nop
     74c:	00000013          	nop
     750:	00000013          	nop
     754:	00000013          	nop
     758:	00000013          	nop
     75c:	00000013          	nop
     760:	00000013          	nop
     764:	00000013          	nop
     768:	00000013          	nop
     76c:	00000013          	nop
     770:	00000013          	nop
     774:	00000013          	nop
     778:	00000013          	nop
     77c:	00000013          	nop
     780:	00000013          	nop
     784:	00000013          	nop
     788:	00000013          	nop
     78c:	00000013          	nop
     790:	00000013          	nop
     794:	00000013          	nop
     798:	00000013          	nop
     79c:	00000013          	nop
     7a0:	00000013          	nop
     7a4:	00000013          	nop
     7a8:	00000013          	nop
     7ac:	00000013          	nop
     7b0:	00000013          	nop
     7b4:	00000013          	nop
     7b8:	00000013          	nop
     7bc:	00000013          	nop
     7c0:	00000013          	nop
     7c4:	00000013          	nop
     7c8:	00000013          	nop
     7cc:	00000013          	nop
     7d0:	00000013          	nop
     7d4:	00000013          	nop
     7d8:	00000013          	nop
     7dc:	00000013          	nop
     7e0:	00000013          	nop
     7e4:	00000013          	nop
     7e8:	00000013          	nop
     7ec:	00000013          	nop
     7f0:	00000013          	nop
     7f4:	00000013          	nop
     7f8:	00000013          	nop
     7fc:	00000013          	nop
     800:	00000013          	nop
     804:	00000013          	nop
     808:	00000013          	nop
     80c:	00000013          	nop
     810:	00000013          	nop
     814:	00000013          	nop
     818:	00000013          	nop
     81c:	00000013          	nop
     820:	00000013          	nop
     824:	00000013          	nop
     828:	00000013          	nop
     82c:	00000013          	nop
     830:	00000013          	nop
     834:	00000013          	nop
     838:	00000013          	nop
     83c:	00000013          	nop
     840:	00000013          	nop
     844:	00000013          	nop
     848:	00000013          	nop
     84c:	00000013          	nop
     850:	00000013          	nop
     854:	00000013          	nop
     858:	00000013          	nop
     85c:	00000013          	nop
     860:	00000013          	nop
     864:	00000013          	nop
     868:	00000013          	nop
     86c:	00000013          	nop
     870:	00000013          	nop
     874:	00000013          	nop
     878:	00000013          	nop
     87c:	00000013          	nop
     880:	00000013          	nop
     884:	00000013          	nop
     888:	00000013          	nop
     88c:	00000013          	nop
     890:	00000013          	nop
     894:	00000013          	nop
     898:	00000013          	nop
     89c:	00000013          	nop
     8a0:	00000013          	nop
     8a4:	00000013          	nop
     8a8:	00000013          	nop
     8ac:	00000013          	nop
     8b0:	00000013          	nop
     8b4:	00000013          	nop
     8b8:	00000013          	nop
     8bc:	00000013          	nop
     8c0:	00000013          	nop
     8c4:	00000013          	nop
     8c8:	00000013          	nop
     8cc:	00000013          	nop
     8d0:	00000013          	nop
     8d4:	00000013          	nop
     8d8:	00000013          	nop
     8dc:	00000013          	nop
     8e0:	00000013          	nop
     8e4:	00000013          	nop
     8e8:	00000013          	nop
     8ec:	00000013          	nop
     8f0:	00000013          	nop
     8f4:	00000013          	nop
     8f8:	00000013          	nop
     8fc:	00000013          	nop
     900:	00000013          	nop
     904:	00000013          	nop
     908:	00000013          	nop
     90c:	00000013          	nop
     910:	00000013          	nop
     914:	00000013          	nop
     918:	00000013          	nop
     91c:	00000013          	nop
     920:	00000013          	nop
     924:	00000013          	nop
     928:	00000013          	nop
     92c:	00000013          	nop
     930:	00000013          	nop
     934:	00000013          	nop
     938:	00000013          	nop
     93c:	00000013          	nop
     940:	00000013          	nop
     944:	00000013          	nop
     948:	00000013          	nop
     94c:	00000013          	nop
     950:	00000013          	nop
     954:	00000013          	nop
     958:	00000013          	nop
     95c:	00000013          	nop
     960:	00000013          	nop
     964:	00000013          	nop
     968:	00000013          	nop
     96c:	00000013          	nop
     970:	00000013          	nop
     974:	00000013          	nop
     978:	00000013          	nop
     97c:	00000013          	nop
     980:	00000013          	nop
     984:	00000013          	nop
     988:	00000013          	nop
     98c:	00000013          	nop
     990:	00000013          	nop
     994:	00000013          	nop
     998:	00000013          	nop
     99c:	00000013          	nop
     9a0:	00000013          	nop
     9a4:	00000013          	nop
     9a8:	00000013          	nop
     9ac:	00000013          	nop
     9b0:	00000013          	nop
     9b4:	00000013          	nop
     9b8:	00000013          	nop
     9bc:	00000013          	nop
     9c0:	00000013          	nop
     9c4:	00000013          	nop
     9c8:	00000013          	nop
     9cc:	00000013          	nop
     9d0:	00000013          	nop
     9d4:	00000013          	nop
     9d8:	00000013          	nop
     9dc:	00000013          	nop
     9e0:	00000013          	nop
     9e4:	00000013          	nop
     9e8:	00000013          	nop
     9ec:	00000013          	nop
     9f0:	00000013          	nop
     9f4:	00000013          	nop
     9f8:	00000013          	nop
     9fc:	00000013          	nop
     a00:	00000013          	nop
     a04:	00000013          	nop
     a08:	00000013          	nop
     a0c:	00000013          	nop
     a10:	00000013          	nop
     a14:	00000013          	nop
     a18:	00000013          	nop
     a1c:	00000013          	nop
     a20:	00000013          	nop
     a24:	00000013          	nop
     a28:	00000013          	nop
     a2c:	00000013          	nop
     a30:	00000013          	nop
     a34:	00000013          	nop
     a38:	00000013          	nop
     a3c:	00000013          	nop
     a40:	00000013          	nop
     a44:	00000013          	nop
     a48:	00000013          	nop
     a4c:	00000013          	nop
     a50:	00000013          	nop
     a54:	00000013          	nop
     a58:	00000013          	nop
     a5c:	00000013          	nop
     a60:	00000013          	nop
     a64:	00000013          	nop
     a68:	00000013          	nop
     a6c:	00000013          	nop
     a70:	00000013          	nop
     a74:	00000013          	nop
     a78:	00000013          	nop
     a7c:	00000013          	nop
     a80:	00000013          	nop
     a84:	00000013          	nop
     a88:	00000013          	nop
     a8c:	00000013          	nop
     a90:	00000013          	nop
     a94:	00000013          	nop
     a98:	00000013          	nop
     a9c:	00000013          	nop
     aa0:	00000013          	nop
     aa4:	00000013          	nop
     aa8:	00000013          	nop
     aac:	00000013          	nop
     ab0:	00000013          	nop
     ab4:	00000013          	nop
     ab8:	00000013          	nop
     abc:	00000013          	nop
     ac0:	00000013          	nop
     ac4:	00000013          	nop
     ac8:	00000013          	nop
     acc:	00000013          	nop
     ad0:	00000013          	nop
     ad4:	00000013          	nop
     ad8:	00000013          	nop
     adc:	00000013          	nop
     ae0:	00000013          	nop
     ae4:	00000013          	nop
     ae8:	00000013          	nop
     aec:	00000013          	nop
     af0:	00000013          	nop
     af4:	00000013          	nop
     af8:	00000013          	nop
     afc:	00000013          	nop
     b00:	00000013          	nop
     b04:	00000013          	nop
     b08:	00000013          	nop
     b0c:	00000013          	nop
     b10:	00000013          	nop
     b14:	00000013          	nop
     b18:	00000013          	nop
     b1c:	00000013          	nop
     b20:	00000013          	nop
     b24:	00000013          	nop
     b28:	00000013          	nop
     b2c:	00000013          	nop
     b30:	00000013          	nop
     b34:	00000013          	nop
     b38:	00000013          	nop
     b3c:	00000013          	nop
     b40:	00000013          	nop
     b44:	00000013          	nop
     b48:	00000013          	nop
     b4c:	00000013          	nop
     b50:	00000013          	nop
     b54:	00000013          	nop
     b58:	00000013          	nop
     b5c:	00000013          	nop
     b60:	00000013          	nop
     b64:	00000013          	nop
     b68:	00000013          	nop
     b6c:	00000013          	nop
     b70:	00000013          	nop
     b74:	00000013          	nop
     b78:	00000013          	nop
     b7c:	00000013          	nop
     b80:	00000013          	nop
     b84:	00000013          	nop
     b88:	00000013          	nop
     b8c:	00000013          	nop
     b90:	00000013          	nop
     b94:	00000013          	nop
     b98:	00000013          	nop
     b9c:	00000013          	nop
     ba0:	00000013          	nop
     ba4:	00000013          	nop
     ba8:	00000013          	nop
     bac:	00000013          	nop
     bb0:	00000013          	nop
     bb4:	00000013          	nop
     bb8:	00000013          	nop
     bbc:	00000013          	nop
     bc0:	00000013          	nop
     bc4:	00000013          	nop
     bc8:	00000013          	nop
     bcc:	00000013          	nop
     bd0:	00000013          	nop
     bd4:	00000013          	nop
     bd8:	00000013          	nop
     bdc:	00000013          	nop
     be0:	00000013          	nop
     be4:	00000013          	nop
     be8:	00000013          	nop
     bec:	00000013          	nop
     bf0:	00000013          	nop
     bf4:	00000013          	nop
     bf8:	00000013          	nop
     bfc:	00000013          	nop
     c00:	00000013          	nop
     c04:	00000013          	nop
     c08:	00000013          	nop
     c0c:	00000013          	nop
     c10:	00000013          	nop
     c14:	00000013          	nop
     c18:	00000013          	nop
     c1c:	00000013          	nop
     c20:	00000013          	nop
     c24:	00000013          	nop
     c28:	00000013          	nop
     c2c:	00000013          	nop
     c30:	00000013          	nop
     c34:	00000013          	nop
     c38:	00000013          	nop
     c3c:	00000013          	nop
     c40:	00000013          	nop
     c44:	00000013          	nop
     c48:	00000013          	nop
     c4c:	00000013          	nop
     c50:	00000013          	nop
     c54:	00000013          	nop
     c58:	00000013          	nop
     c5c:	00000013          	nop
     c60:	00000013          	nop
     c64:	00000013          	nop
     c68:	00000013          	nop
     c6c:	00000013          	nop
     c70:	00000013          	nop
     c74:	00000013          	nop
     c78:	00000013          	nop
     c7c:	00000013          	nop
     c80:	00000013          	nop
     c84:	00000013          	nop
     c88:	00000013          	nop
     c8c:	00000013          	nop
     c90:	00000013          	nop
     c94:	00000013          	nop
     c98:	00000013          	nop
     c9c:	00000013          	nop
     ca0:	00000013          	nop
     ca4:	00000013          	nop
     ca8:	00000013          	nop
     cac:	00000013          	nop
     cb0:	00000013          	nop
     cb4:	00000013          	nop
     cb8:	00000013          	nop
     cbc:	00000013          	nop
     cc0:	00000013          	nop
     cc4:	00000013          	nop
     cc8:	00000013          	nop
     ccc:	00000013          	nop
     cd0:	00000013          	nop
     cd4:	00000013          	nop
     cd8:	00000013          	nop
     cdc:	00000013          	nop
     ce0:	00000013          	nop
     ce4:	00000013          	nop
     ce8:	00000013          	nop
     cec:	00000013          	nop
     cf0:	00000013          	nop
     cf4:	00000013          	nop
     cf8:	00000013          	nop
     cfc:	00000013          	nop
     d00:	00000013          	nop
     d04:	00000013          	nop
     d08:	00000013          	nop
     d0c:	00000013          	nop
     d10:	00000013          	nop
     d14:	00000013          	nop
     d18:	00000013          	nop
     d1c:	00000013          	nop
     d20:	00000013          	nop
     d24:	00000013          	nop
     d28:	00000013          	nop
     d2c:	00000013          	nop
     d30:	00000013          	nop
     d34:	00000013          	nop
     d38:	00000013          	nop
     d3c:	00000013          	nop
     d40:	00000013          	nop
     d44:	00000013          	nop
     d48:	00000013          	nop
     d4c:	00000013          	nop
     d50:	00000013          	nop
     d54:	00000013          	nop
     d58:	00000013          	nop
     d5c:	00000013          	nop
     d60:	00000013          	nop
     d64:	00000013          	nop
     d68:	00000013          	nop
     d6c:	00000013          	nop
     d70:	00000013          	nop
     d74:	00000013          	nop
     d78:	00000013          	nop
     d7c:	00000013          	nop
     d80:	00000013          	nop
     d84:	00000013          	nop
     d88:	00000013          	nop
     d8c:	00000013          	nop
     d90:	00000013          	nop
     d94:	00000013          	nop
     d98:	00000013          	nop
     d9c:	00000013          	nop
     da0:	00000013          	nop
     da4:	00000013          	nop
     da8:	00000013          	nop
     dac:	00000013          	nop
     db0:	00000013          	nop
     db4:	00000013          	nop
     db8:	00000013          	nop
     dbc:	00000013          	nop
     dc0:	00000013          	nop
     dc4:	00000013          	nop
     dc8:	00000013          	nop
     dcc:	00000013          	nop
     dd0:	00000013          	nop
     dd4:	00000013          	nop
     dd8:	00000013          	nop
     ddc:	00000013          	nop
     de0:	00000013          	nop
     de4:	00000013          	nop
     de8:	00000013          	nop
     dec:	00000013          	nop
     df0:	00000013          	nop
     df4:	00000013          	nop
     df8:	00000013          	nop
     dfc:	00000013          	nop
     e00:	00000013          	nop
     e04:	00000013          	nop
     e08:	00000013          	nop
     e0c:	00000013          	nop
     e10:	00000013          	nop
     e14:	00000013          	nop
     e18:	00000013          	nop
     e1c:	00000013          	nop
     e20:	00000013          	nop
     e24:	00000013          	nop
     e28:	00000013          	nop
     e2c:	00000013          	nop
     e30:	00000013          	nop
     e34:	00000013          	nop
     e38:	00000013          	nop
     e3c:	00000013          	nop
     e40:	00000013          	nop
     e44:	00000013          	nop
     e48:	00000013          	nop
     e4c:	00000013          	nop
     e50:	00000013          	nop
     e54:	00000013          	nop
     e58:	00000013          	nop
     e5c:	00000013          	nop
     e60:	00000013          	nop
     e64:	00000013          	nop
     e68:	00000013          	nop
     e6c:	00000013          	nop
     e70:	00000013          	nop
     e74:	00000013          	nop
     e78:	00000013          	nop
     e7c:	00000013          	nop
     e80:	00000013          	nop
     e84:	00000013          	nop
     e88:	00000013          	nop
     e8c:	00000013          	nop
     e90:	00000013          	nop
     e94:	00000013          	nop
     e98:	00000013          	nop
     e9c:	00000013          	nop
     ea0:	00000013          	nop
     ea4:	00000013          	nop
     ea8:	00000013          	nop
     eac:	00000013          	nop
     eb0:	00000013          	nop
     eb4:	00000013          	nop
     eb8:	00000013          	nop
     ebc:	00000013          	nop
     ec0:	00000013          	nop
     ec4:	00000013          	nop
     ec8:	00000013          	nop
     ecc:	00000013          	nop
     ed0:	00000013          	nop
     ed4:	00000013          	nop
     ed8:	00000013          	nop
     edc:	00000013          	nop
     ee0:	00000013          	nop
     ee4:	00000013          	nop
     ee8:	00000013          	nop
     eec:	00000013          	nop
     ef0:	00000013          	nop
     ef4:	00000013          	nop
     ef8:	00000013          	nop
     efc:	00000013          	nop
     f00:	00000013          	nop
     f04:	00000013          	nop
     f08:	00000013          	nop
     f0c:	00000013          	nop
     f10:	00000013          	nop
     f14:	00000013          	nop
     f18:	00000013          	nop
     f1c:	00000013          	nop
     f20:	00000013          	nop
     f24:	00000013          	nop
     f28:	00000013          	nop
     f2c:	00000013          	nop
     f30:	00000013          	nop
     f34:	00000013          	nop
     f38:	00000013          	nop
     f3c:	00000013          	nop
     f40:	00000013          	nop
     f44:	00000013          	nop
     f48:	00000013          	nop
     f4c:	00000013          	nop
     f50:	00000013          	nop
     f54:	00000013          	nop
     f58:	00000013          	nop
     f5c:	00000013          	nop
     f60:	00000013          	nop
     f64:	00000013          	nop
     f68:	00000013          	nop
     f6c:	00000013          	nop
     f70:	00000013          	nop
     f74:	00000013          	nop
     f78:	00000013          	nop
     f7c:	00000013          	nop
     f80:	00000013          	nop
     f84:	00000013          	nop
     f88:	00000013          	nop
     f8c:	00000013          	nop
     f90:	00000013          	nop
     f94:	00000013          	nop
     f98:	00000013          	nop
     f9c:	00000013          	nop
     fa0:	00000013          	nop
     fa4:	00000013          	nop
     fa8:	00000013          	nop
     fac:	00000013          	nop
     fb0:	00000013          	nop
     fb4:	00000013          	nop
     fb8:	00000013          	nop
     fbc:	00000013          	nop
     fc0:	00000013          	nop
     fc4:	00000013          	nop
     fc8:	00000013          	nop
     fcc:	00000013          	nop
     fd0:	00000013          	nop
     fd4:	00000013          	nop
     fd8:	00000013          	nop
     fdc:	00000013          	nop
     fe0:	00000013          	nop
     fe4:	00000013          	nop
     fe8:	00000013          	nop
     fec:	00000013          	nop
     ff0:	00000013          	nop
     ff4:	00000013          	nop
     ff8:	00000013          	nop
     ffc:	00000013          	nop
	...
    1ffc:	0000                	unimp
    1ffe:	00160593          	addi	a1,a2,1
    2002:	00200e93          	li	t4,2
    2006:	00200193          	li	gp,2
    200a:	23d59063          	bne	a1,t4,222a <fail>
    200e:	00001137          	lui	sp,0x1
    2012:	23410113          	addi	sp,sp,564 # 1234 <data+0xf94>

00002016 <test_3>:
    2016:	1fe8                	addi	a0,sp,1020
    2018:	00001eb7          	lui	t4,0x1
    201c:	630e8e93          	addi	t4,t4,1584 # 1630 <data+0x1390>
    2020:	00300193          	li	gp,3
    2024:	21d51363          	bne	a0,t4,222a <fail>

00002028 <test_4>:
    2028:	617d                	addi	sp,sp,496
    202a:	00001eb7          	lui	t4,0x1
    202e:	424e8e93          	addi	t4,t4,1060 # 1424 <data+0x1184>
    2032:	00400193          	li	gp,4
    2036:	1fd11a63          	bne	sp,t4,222a <fail>

0000203a <test_5>:
    203a:	7101                	addi	sp,sp,-512
    203c:	00001eb7          	lui	t4,0x1
    2040:	224e8e93          	addi	t4,t4,548 # 1224 <data+0xf84>
    2044:	00500193          	li	gp,5
    2048:	1fd11163          	bne	sp,t4,222a <fail>
    204c:	ffffe597          	auipc	a1,0xffffe
    2050:	25458593          	addi	a1,a1,596 # 2a0 <data>

00002054 <test_6>:
    2054:	41c8                	lw	a0,4(a1)
    2056:	0505                	addi	a0,a0,1
    2058:	c1c8                	sw	a0,4(a1)
    205a:	41d0                	lw	a2,4(a1)
    205c:	fedcceb7          	lui	t4,0xfedcc
    2060:	a99e8e93          	addi	t4,t4,-1383 # fedcba99 <_end+0xfedc7a89>
    2064:	00600193          	li	gp,6
    2068:	1dd61163          	bne	a2,t4,222a <fail>

0000206c <test_8>:
    206c:	00106513          	ori	a0,zero,1
    2070:	1541                	addi	a0,a0,-16
    2072:	ff100e93          	li	t4,-15
    2076:	00800193          	li	gp,8
    207a:	1bd51863          	bne	a0,t4,222a <fail>

0000207e <test_9>:
    207e:	00106793          	ori	a5,zero,1
    2082:	57c1                	li	a5,-16
    2084:	ff000e93          	li	t4,-16
    2088:	00900193          	li	gp,9
    208c:	19d79f63          	bne	a5,t4,222a <fail>

00002090 <test_11>:
    2090:	7405                	lui	s0,0xfffe1
    2092:	8431                	srai	s0,s0,0xc
    2094:	fe100e93          	li	t4,-31
    2098:	00b00193          	li	gp,11
    209c:	19d41763          	bne	s0,t4,222a <fail>

000020a0 <test_12>:
    20a0:	7405                	lui	s0,0xfffe1
    20a2:	8031                	srli	s0,s0,0xc
    20a4:	00100eb7          	lui	t4,0x100
    20a8:	fe1e8e93          	addi	t4,t4,-31 # fffe1 <_end+0xfbfd1>
    20ac:	00c00193          	li	gp,12
    20b0:	17d41d63          	bne	s0,t4,222a <fail>

000020b4 <test_14>:
    20b4:	5479                	li	s0,-2
    20b6:	983d                	andi	s0,s0,-17
    20b8:	fee00e93          	li	t4,-18
    20bc:	00e00193          	li	gp,14
    20c0:	17d41563          	bne	s0,t4,222a <fail>

000020c4 <test_15>:
    20c4:	44d1                	li	s1,20
    20c6:	4519                	li	a0,6
    20c8:	8c89                	sub	s1,s1,a0
    20ca:	00e00e93          	li	t4,14
    20ce:	00f00193          	li	gp,15
    20d2:	15d49c63          	bne	s1,t4,222a <fail>

000020d6 <test_16>:
    20d6:	44d1                	li	s1,20
    20d8:	4519                	li	a0,6
    20da:	8ca9                	xor	s1,s1,a0
    20dc:	01200e93          	li	t4,18
    20e0:	01000193          	li	gp,16
    20e4:	15d49363          	bne	s1,t4,222a <fail>

000020e8 <test_17>:
    20e8:	44d1                	li	s1,20
    20ea:	4519                	li	a0,6
    20ec:	8cc9                	or	s1,s1,a0
    20ee:	01600e93          	li	t4,22
    20f2:	01100193          	li	gp,17
    20f6:	13d49a63          	bne	s1,t4,222a <fail>

000020fa <test_18>:
    20fa:	44d1                	li	s1,20
    20fc:	4519                	li	a0,6
    20fe:	8ce9                	and	s1,s1,a0
    2100:	00400e93          	li	t4,4
    2104:	01200193          	li	gp,18
    2108:	13d49163          	bne	s1,t4,222a <fail>

0000210c <test_21>:
    210c:	00001437          	lui	s0,0x1
    2110:	23440413          	addi	s0,s0,564 # 1234 <data+0xf94>
    2114:	0412                	slli	s0,s0,0x4
    2116:	00012eb7          	lui	t4,0x12
    211a:	340e8e93          	addi	t4,t4,832 # 12340 <_end+0xe330>
    211e:	01500193          	li	gp,21
    2122:	11d41463          	bne	s0,t4,222a <fail>

00002126 <test_30>:
    2126:	4081                	li	ra,0
    2128:	a011                	j	212c <test_30+0x6>
    212a:	a011                	j	212e <test_30+0x8>
    212c:	a011                	j	2130 <test_30+0xa>
    212e:	a8f5                	j	222a <fail>
    2130:	00000e93          	li	t4,0
    2134:	01e00193          	li	gp,30
    2138:	0fd09963          	bne	ra,t4,222a <fail>

0000213c <test_31>:
    213c:	4501                	li	a0,0
    213e:	c111                	beqz	a0,2142 <test_31+0x6>
    2140:	a011                	j	2144 <test_31+0x8>
    2142:	a011                	j	2146 <test_31+0xa>
    2144:	a0dd                	j	222a <fail>
    2146:	00000e93          	li	t4,0
    214a:	01f00193          	li	gp,31
    214e:	0dd01e63          	bne	zero,t4,222a <fail>

00002152 <test_32>:
    2152:	4505                	li	a0,1
    2154:	e111                	bnez	a0,2158 <test_32+0x6>
    2156:	a011                	j	215a <test_32+0x8>
    2158:	a011                	j	215c <test_32+0xa>
    215a:	a8c1                	j	222a <fail>
    215c:	00000e93          	li	t4,0
    2160:	02000193          	li	gp,32
    2164:	0dd01363          	bne	zero,t4,222a <fail>

00002168 <test_33>:
    2168:	4505                	li	a0,1
    216a:	c111                	beqz	a0,216e <test_33+0x6>
    216c:	a011                	j	2170 <test_33+0x8>
    216e:	a875                	j	222a <fail>
    2170:	00000e93          	li	t4,0
    2174:	02100193          	li	gp,33
    2178:	0bd01963          	bne	zero,t4,222a <fail>

0000217c <test_34>:
    217c:	4501                	li	a0,0
    217e:	e111                	bnez	a0,2182 <test_34+0x6>
    2180:	a011                	j	2184 <test_34+0x8>
    2182:	a065                	j	222a <fail>
    2184:	00000e93          	li	t4,0
    2188:	02200193          	li	gp,34
    218c:	09d01f63          	bne	zero,t4,222a <fail>

00002190 <test_35>:
    2190:	00000297          	auipc	t0,0x0
    2194:	00e28293          	addi	t0,t0,14 # 219e <test_35+0xe>
    2198:	4081                	li	ra,0
    219a:	8282                	jr	t0
    219c:	a011                	j	21a0 <test_35+0x10>
    219e:	a011                	j	21a2 <test_35+0x12>
    21a0:	a069                	j	222a <fail>
    21a2:	00000e93          	li	t4,0
    21a6:	02300193          	li	gp,35
    21aa:	09d09063          	bne	ra,t4,222a <fail>

000021ae <test_36>:
    21ae:	00000297          	auipc	t0,0x0
    21b2:	00e28293          	addi	t0,t0,14 # 21bc <test_36+0xe>
    21b6:	4081                	li	ra,0
    21b8:	9282                	jalr	t0
    21ba:	a011                	j	21be <test_36+0x10>
    21bc:	a011                	j	21c0 <test_36+0x12>
    21be:	a0b5                	j	222a <fail>
    21c0:	405080b3          	sub	ra,ra,t0
    21c4:	ffe00e93          	li	t4,-2
    21c8:	02400193          	li	gp,36
    21cc:	05d09f63          	bne	ra,t4,222a <fail>

000021d0 <test_37>:
    21d0:	00000297          	auipc	t0,0x0
    21d4:	00e28293          	addi	t0,t0,14 # 21de <test_37+0xe>
    21d8:	4081                	li	ra,0
    21da:	2011                	jal	21de <test_37+0xe>
    21dc:	a011                	j	21e0 <test_37+0x10>
    21de:	a011                	j	21e2 <test_37+0x12>
    21e0:	a0a9                	j	222a <fail>
    21e2:	405080b3          	sub	ra,ra,t0
    21e6:	ffe00e93          	li	t4,-2
    21ea:	02500193          	li	gp,37
    21ee:	03d09e63          	bne	ra,t4,222a <fail>
    21f2:	ffffe117          	auipc	sp,0xffffe
    21f6:	0ae10113          	addi	sp,sp,174 # 2a0 <data>

000021fa <test_40>:
    21fa:	4532                	lw	a0,12(sp)
    21fc:	0505                	addi	a0,a0,1
    21fe:	c62a                	sw	a0,12(sp)
    2200:	4632                	lw	a2,12(sp)
    2202:	fedcceb7          	lui	t4,0xfedcc
    2206:	a99e8e93          	addi	t4,t4,-1383 # fedcba99 <_end+0xfedc7a89>
    220a:	02800193          	li	gp,40
    220e:	01d61e63          	bne	a2,t4,222a <fail>

00002212 <test_42>:
    2212:	12300513          	li	a0,291
    2216:	82aa                	mv	t0,a0
    2218:	92aa                	add	t0,t0,a0
    221a:	24600e93          	li	t4,582
    221e:	02a00193          	li	gp,42
    2222:	01d29463          	bne	t0,t4,222a <fail>
    2226:	00301c63          	bne	zero,gp,223e <pass>

0000222a <fail>:
    222a:	0ff0000f          	fence
    222e:	00018063          	beqz	gp,222e <fail+0x4>
    2232:	00119193          	slli	gp,gp,0x1
    2236:	0011e193          	ori	gp,gp,1
    223a:	00000073          	ecall

0000223e <pass>:
    223e:	0ff0000f          	fence
    2242:	00100193          	li	gp,1
    2246:	00000073          	ecall
    224a:	c0001073          	unimp
	...

Disassembly of section .tohost:

00003000 <tohost>:
	...

00003040 <fromhost>:
	...
