
dhrystone.riscv:     file format elf32-littleriscv


Disassembly of section .text.init:

80000000 <_start>:
80000000:	4081                	li	ra,0
80000002:	4101                	li	sp,0
80000004:	4181                	li	gp,0
80000006:	4201                	li	tp,0
80000008:	4281                	li	t0,0
8000000a:	4301                	li	t1,0
8000000c:	4381                	li	t2,0
8000000e:	4401                	li	s0,0
80000010:	4481                	li	s1,0
80000012:	4501                	li	a0,0
80000014:	4581                	li	a1,0
80000016:	4601                	li	a2,0
80000018:	4681                	li	a3,0
8000001a:	4701                	li	a4,0
8000001c:	4781                	li	a5,0
8000001e:	4801                	li	a6,0
80000020:	4881                	li	a7,0
80000022:	4901                	li	s2,0
80000024:	4981                	li	s3,0
80000026:	4a01                	li	s4,0
80000028:	4a81                	li	s5,0
8000002a:	4b01                	li	s6,0
8000002c:	4b81                	li	s7,0
8000002e:	4c01                	li	s8,0
80000030:	4c81                	li	s9,0
80000032:	4d01                	li	s10,0
80000034:	4d81                	li	s11,0
80000036:	4e01                	li	t3,0
80000038:	4e81                	li	t4,0
8000003a:	4f01                	li	t5,0
8000003c:	4f81                	li	t6,0
8000003e:	62f9                	lui	t0,0x1e
80000040:	3002a073          	csrs	mstatus,t0
80000044:	4285                	li	t0,1
80000046:	02fe                	slli	t0,t0,0x1f
80000048:	0002c863          	bltz	t0,80000058 <_start+0x58>
8000004c:	4505                	li	a0,1
8000004e:	00001297          	auipc	t0,0x1
80000052:	faa2a923          	sw	a0,-78(t0) # 80001000 <tohost>
80000056:	bfdd                	j	8000004c <_start+0x4c>
80000058:	00000297          	auipc	t0,0x0
8000005c:	09028293          	addi	t0,t0,144 # 800000e8 <_start+0xe8>
80000060:	30529073          	csrw	mtvec,t0
80000064:	00301073          	fssr	zero
80000068:	f0000053          	fmv.w.x	ft0,zero
8000006c:	f00000d3          	fmv.w.x	ft1,zero
80000070:	f0000153          	fmv.w.x	ft2,zero
80000074:	f00001d3          	fmv.w.x	ft3,zero
80000078:	f0000253          	fmv.w.x	ft4,zero
8000007c:	f00002d3          	fmv.w.x	ft5,zero
80000080:	f0000353          	fmv.w.x	ft6,zero
80000084:	f00003d3          	fmv.w.x	ft7,zero
80000088:	f0000453          	fmv.w.x	fs0,zero
8000008c:	f00004d3          	fmv.w.x	fs1,zero
80000090:	f0000553          	fmv.w.x	fa0,zero
80000094:	f00005d3          	fmv.w.x	fa1,zero
80000098:	f0000653          	fmv.w.x	fa2,zero
8000009c:	f00006d3          	fmv.w.x	fa3,zero
800000a0:	f0000753          	fmv.w.x	fa4,zero
800000a4:	f00007d3          	fmv.w.x	fa5,zero
800000a8:	f0000853          	fmv.w.x	fa6,zero
800000ac:	f00008d3          	fmv.w.x	fa7,zero
800000b0:	f0000953          	fmv.w.x	fs2,zero
800000b4:	f00009d3          	fmv.w.x	fs3,zero
800000b8:	f0000a53          	fmv.w.x	fs4,zero
800000bc:	f0000ad3          	fmv.w.x	fs5,zero
800000c0:	f0000b53          	fmv.w.x	fs6,zero
800000c4:	f0000bd3          	fmv.w.x	fs7,zero
800000c8:	f0000c53          	fmv.w.x	fs8,zero
800000cc:	f0000cd3          	fmv.w.x	fs9,zero
800000d0:	f0000d53          	fmv.w.x	fs10,zero
800000d4:	f0000dd3          	fmv.w.x	fs11,zero
800000d8:	f0000e53          	fmv.w.x	ft8,zero
800000dc:	f0000ed3          	fmv.w.x	ft9,zero
800000e0:	f0000f53          	fmv.w.x	ft10,zero
800000e4:	f0000fd3          	fmv.w.x	ft11,zero
800000e8:	00000297          	auipc	t0,0x0
800000ec:	03c28293          	addi	t0,t0,60 # 80000124 <trap_entry>
800000f0:	30529073          	csrw	mtvec,t0
800000f4:	10000197          	auipc	gp,0x10000
800000f8:	70c18193          	addi	gp,gp,1804 # 90000800 <__global_pointer$>
800000fc:	10002217          	auipc	tp,0x10002
80000100:	78320213          	addi	tp,tp,1923 # 9000287f <_end+0x3f>
80000104:	fc027213          	andi	tp,tp,-64
80000108:	f1402573          	csrr	a0,mhartid
8000010c:	4585                	li	a1,1
8000010e:	00b57063          	bleu	a1,a0,8000010e <_start+0x10e>
80000112:	01151613          	slli	a2,a0,0x11
80000116:	9232                	add	tp,tp,a2
80000118:	00150113          	addi	sp,a0,1
8000011c:	0146                	slli	sp,sp,0x11
8000011e:	9112                	add	sp,sp,tp
80000120:	0530106f          	j	80001972 <_init>

80000124 <trap_entry>:
80000124:	716d                	addi	sp,sp,-272
80000126:	c206                	sw	ra,4(sp)
80000128:	c40a                	sw	sp,8(sp)
8000012a:	c60e                	sw	gp,12(sp)
8000012c:	c812                	sw	tp,16(sp)
8000012e:	ca16                	sw	t0,20(sp)
80000130:	cc1a                	sw	t1,24(sp)
80000132:	ce1e                	sw	t2,28(sp)
80000134:	d022                	sw	s0,32(sp)
80000136:	d226                	sw	s1,36(sp)
80000138:	d42a                	sw	a0,40(sp)
8000013a:	d62e                	sw	a1,44(sp)
8000013c:	d832                	sw	a2,48(sp)
8000013e:	da36                	sw	a3,52(sp)
80000140:	dc3a                	sw	a4,56(sp)
80000142:	de3e                	sw	a5,60(sp)
80000144:	c0c2                	sw	a6,64(sp)
80000146:	c2c6                	sw	a7,68(sp)
80000148:	c4ca                	sw	s2,72(sp)
8000014a:	c6ce                	sw	s3,76(sp)
8000014c:	c8d2                	sw	s4,80(sp)
8000014e:	cad6                	sw	s5,84(sp)
80000150:	ccda                	sw	s6,88(sp)
80000152:	cede                	sw	s7,92(sp)
80000154:	d0e2                	sw	s8,96(sp)
80000156:	d2e6                	sw	s9,100(sp)
80000158:	d4ea                	sw	s10,104(sp)
8000015a:	d6ee                	sw	s11,108(sp)
8000015c:	d8f2                	sw	t3,112(sp)
8000015e:	daf6                	sw	t4,116(sp)
80000160:	dcfa                	sw	t5,120(sp)
80000162:	defe                	sw	t6,124(sp)
80000164:	34202573          	csrr	a0,mcause
80000168:	341025f3          	csrr	a1,mepc
8000016c:	860a                	mv	a2,sp
8000016e:	672010ef          	jal	ra,800017e0 <handle_trap>
80000172:	34151073          	csrw	mepc,a0
80000176:	000022b7          	lui	t0,0x2
8000017a:	80028293          	addi	t0,t0,-2048 # 1800 <_tbss_end+0x17bc>
8000017e:	3002a073          	csrs	mstatus,t0
80000182:	4092                	lw	ra,4(sp)
80000184:	4122                	lw	sp,8(sp)
80000186:	41b2                	lw	gp,12(sp)
80000188:	4242                	lw	tp,16(sp)
8000018a:	42d2                	lw	t0,20(sp)
8000018c:	4362                	lw	t1,24(sp)
8000018e:	43f2                	lw	t2,28(sp)
80000190:	5402                	lw	s0,32(sp)
80000192:	5492                	lw	s1,36(sp)
80000194:	5522                	lw	a0,40(sp)
80000196:	55b2                	lw	a1,44(sp)
80000198:	5642                	lw	a2,48(sp)
8000019a:	56d2                	lw	a3,52(sp)
8000019c:	5762                	lw	a4,56(sp)
8000019e:	57f2                	lw	a5,60(sp)
800001a0:	4806                	lw	a6,64(sp)
800001a2:	4896                	lw	a7,68(sp)
800001a4:	4926                	lw	s2,72(sp)
800001a6:	49b6                	lw	s3,76(sp)
800001a8:	4a46                	lw	s4,80(sp)
800001aa:	4ad6                	lw	s5,84(sp)
800001ac:	4b66                	lw	s6,88(sp)
800001ae:	4bf6                	lw	s7,92(sp)
800001b0:	5c06                	lw	s8,96(sp)
800001b2:	5c96                	lw	s9,100(sp)
800001b4:	5d26                	lw	s10,104(sp)
800001b6:	5db6                	lw	s11,108(sp)
800001b8:	5e46                	lw	t3,112(sp)
800001ba:	5ed6                	lw	t4,116(sp)
800001bc:	5f66                	lw	t5,120(sp)
800001be:	5ff6                	lw	t6,124(sp)
800001c0:	6151                	addi	sp,sp,272
800001c2:	30200073          	mret

Disassembly of section .tohost:

80001000 <tohost>:
	...

80001040 <fromhost>:
	...

Disassembly of section .text:

80001048 <Proc_7>:
80001048:	0509                	addi	a0,a0,2
8000104a:	95aa                	add	a1,a1,a0
8000104c:	c20c                	sw	a1,0(a2)
8000104e:	8082                	ret

80001050 <Proc_8>:
80001050:	00560713          	addi	a4,a2,5
80001054:	0c800813          	li	a6,200
80001058:	03070833          	mul	a6,a4,a6
8000105c:	060a                	slli	a2,a2,0x2
8000105e:	00271793          	slli	a5,a4,0x2
80001062:	953e                	add	a0,a0,a5
80001064:	c114                	sw	a3,0(a0)
80001066:	dd38                	sw	a4,120(a0)
80001068:	c154                	sw	a3,4(a0)
8000106a:	00c807b3          	add	a5,a6,a2
8000106e:	97ae                	add	a5,a5,a1
80001070:	4b94                	lw	a3,16(a5)
80001072:	cbd8                	sw	a4,20(a5)
80001074:	cf98                	sw	a4,24(a5)
80001076:	00168713          	addi	a4,a3,1
8000107a:	cb98                	sw	a4,16(a5)
8000107c:	411c                	lw	a5,0(a0)
8000107e:	95c2                	add	a1,a1,a6
80001080:	95b2                	add	a1,a1,a2
80001082:	6605                	lui	a2,0x1
80001084:	95b2                	add	a1,a1,a2
80001086:	faf5aa23          	sw	a5,-76(a1)
8000108a:	4795                	li	a5,5
8000108c:	0ffff717          	auipc	a4,0xffff
80001090:	f8f72c23          	sw	a5,-104(a4) # 90000024 <Int_Glob>
80001094:	8082                	ret

80001096 <Func_1>:
80001096:	0ff57513          	andi	a0,a0,255
8000109a:	0ff5f593          	andi	a1,a1,255
8000109e:	00b50463          	beq	a0,a1,800010a6 <Func_1+0x10>
800010a2:	4501                	li	a0,0
800010a4:	8082                	ret
800010a6:	0ffff797          	auipc	a5,0xffff
800010aa:	f6a78ba3          	sb	a0,-137(a5) # 9000001d <Ch_1_Glob>
800010ae:	4505                	li	a0,1
800010b0:	8082                	ret

800010b2 <Func_2>:
800010b2:	1141                	addi	sp,sp,-16
800010b4:	c422                	sw	s0,8(sp)
800010b6:	c226                	sw	s1,4(sp)
800010b8:	c606                	sw	ra,12(sp)
800010ba:	842a                	mv	s0,a0
800010bc:	84ae                	mv	s1,a1
800010be:	0034c583          	lbu	a1,3(s1)
800010c2:	00244503          	lbu	a0,2(s0)
800010c6:	3fc1                	jal	80001096 <Func_1>
800010c8:	f97d                	bnez	a0,800010be <Func_2+0xc>
800010ca:	85a6                	mv	a1,s1
800010cc:	8522                	mv	a0,s0
800010ce:	18f000ef          	jal	ra,80001a5c <strcmp>
800010d2:	4781                	li	a5,0
800010d4:	00a05863          	blez	a0,800010e4 <Func_2+0x32>
800010d8:	47a9                	li	a5,10
800010da:	0ffff717          	auipc	a4,0xffff
800010de:	f4f72523          	sw	a5,-182(a4) # 90000024 <Int_Glob>
800010e2:	4785                	li	a5,1
800010e4:	40b2                	lw	ra,12(sp)
800010e6:	4422                	lw	s0,8(sp)
800010e8:	4492                	lw	s1,4(sp)
800010ea:	853e                	mv	a0,a5
800010ec:	0141                	addi	sp,sp,16
800010ee:	8082                	ret

800010f0 <Func_3>:
800010f0:	1579                	addi	a0,a0,-2
800010f2:	00153513          	seqz	a0,a0
800010f6:	8082                	ret

800010f8 <Proc_6>:
800010f8:	1141                	addi	sp,sp,-16
800010fa:	c422                	sw	s0,8(sp)
800010fc:	c226                	sw	s1,4(sp)
800010fe:	c606                	sw	ra,12(sp)
80001100:	842a                	mv	s0,a0
80001102:	84ae                	mv	s1,a1
80001104:	37f5                	jal	800010f0 <Func_3>
80001106:	c115                	beqz	a0,8000112a <Proc_6+0x32>
80001108:	c080                	sw	s0,0(s1)
8000110a:	4785                	li	a5,1
8000110c:	02f40463          	beq	s0,a5,80001134 <Proc_6+0x3c>
80001110:	c81d                	beqz	s0,80001146 <Proc_6+0x4e>
80001112:	4709                	li	a4,2
80001114:	04e40063          	beq	s0,a4,80001154 <Proc_6+0x5c>
80001118:	4791                	li	a5,4
8000111a:	00f41363          	bne	s0,a5,80001120 <Proc_6+0x28>
8000111e:	c098                	sw	a4,0(s1)
80001120:	40b2                	lw	ra,12(sp)
80001122:	4422                	lw	s0,8(sp)
80001124:	4492                	lw	s1,4(sp)
80001126:	0141                	addi	sp,sp,16
80001128:	8082                	ret
8000112a:	478d                	li	a5,3
8000112c:	c09c                	sw	a5,0(s1)
8000112e:	4785                	li	a5,1
80001130:	fef410e3          	bne	s0,a5,80001110 <Proc_6+0x18>
80001134:	0ffff797          	auipc	a5,0xffff
80001138:	ef078793          	addi	a5,a5,-272 # 90000024 <Int_Glob>
8000113c:	4398                	lw	a4,0(a5)
8000113e:	06400793          	li	a5,100
80001142:	00e7df63          	ble	a4,a5,80001160 <Proc_6+0x68>
80001146:	40b2                	lw	ra,12(sp)
80001148:	4422                	lw	s0,8(sp)
8000114a:	0004a023          	sw	zero,0(s1)
8000114e:	4492                	lw	s1,4(sp)
80001150:	0141                	addi	sp,sp,16
80001152:	8082                	ret
80001154:	40b2                	lw	ra,12(sp)
80001156:	4422                	lw	s0,8(sp)
80001158:	c09c                	sw	a5,0(s1)
8000115a:	4492                	lw	s1,4(sp)
8000115c:	0141                	addi	sp,sp,16
8000115e:	8082                	ret
80001160:	40b2                	lw	ra,12(sp)
80001162:	4422                	lw	s0,8(sp)
80001164:	478d                	li	a5,3
80001166:	c09c                	sw	a5,0(s1)
80001168:	4492                	lw	s1,4(sp)
8000116a:	0141                	addi	sp,sp,16
8000116c:	8082                	ret

8000116e <debug_printf>:
8000116e:	1101                	addi	sp,sp,-32
80001170:	c22e                	sw	a1,4(sp)
80001172:	c432                	sw	a2,8(sp)
80001174:	c636                	sw	a3,12(sp)
80001176:	c83a                	sw	a4,16(sp)
80001178:	ca3e                	sw	a5,20(sp)
8000117a:	cc42                	sw	a6,24(sp)
8000117c:	ce46                	sw	a7,28(sp)
8000117e:	6105                	addi	sp,sp,32
80001180:	8082                	ret

80001182 <Proc_2>:
80001182:	0ffff717          	auipc	a4,0xffff
80001186:	e9b74703          	lbu	a4,-357(a4) # 9000001d <Ch_1_Glob>
8000118a:	04100793          	li	a5,65
8000118e:	00f70363          	beq	a4,a5,80001194 <Proc_2+0x12>
80001192:	8082                	ret
80001194:	411c                	lw	a5,0(a0)
80001196:	0ffff717          	auipc	a4,0xffff
8000119a:	e8e70713          	addi	a4,a4,-370 # 90000024 <Int_Glob>
8000119e:	4318                	lw	a4,0(a4)
800011a0:	07a5                	addi	a5,a5,9
800011a2:	8f99                	sub	a5,a5,a4
800011a4:	c11c                	sw	a5,0(a0)
800011a6:	8082                	ret

800011a8 <Proc_3>:
800011a8:	0ffff797          	auipc	a5,0xffff
800011ac:	e8478793          	addi	a5,a5,-380 # 9000002c <Ptr_Glob>
800011b0:	4390                	lw	a2,0(a5)
800011b2:	c601                	beqz	a2,800011ba <Proc_3+0x12>
800011b4:	4218                	lw	a4,0(a2)
800011b6:	c118                	sw	a4,0(a0)
800011b8:	4390                	lw	a2,0(a5)
800011ba:	0ffff797          	auipc	a5,0xffff
800011be:	e6a78793          	addi	a5,a5,-406 # 90000024 <Int_Glob>
800011c2:	438c                	lw	a1,0(a5)
800011c4:	0631                	addi	a2,a2,12
800011c6:	4529                	li	a0,10
800011c8:	b541                	j	80001048 <Proc_7>

800011ca <Proc_1>:
800011ca:	1141                	addi	sp,sp,-16
800011cc:	c04a                	sw	s2,0(sp)
800011ce:	0ffff917          	auipc	s2,0xffff
800011d2:	e5e90913          	addi	s2,s2,-418 # 9000002c <Ptr_Glob>
800011d6:	00092783          	lw	a5,0(s2)
800011da:	c422                	sw	s0,8(sp)
800011dc:	4100                	lw	s0,0(a0)
800011de:	4398                	lw	a4,0(a5)
800011e0:	c226                	sw	s1,4(sp)
800011e2:	0047ae83          	lw	t4,4(a5)
800011e6:	0087ae03          	lw	t3,8(a5)
800011ea:	0107a303          	lw	t1,16(a5)
800011ee:	0147a883          	lw	a7,20(a5)
800011f2:	0187a803          	lw	a6,24(a5)
800011f6:	538c                	lw	a1,32(a5)
800011f8:	53d0                	lw	a2,36(a5)
800011fa:	5794                	lw	a3,40(a5)
800011fc:	c606                	sw	ra,12(sp)
800011fe:	84aa                	mv	s1,a0
80001200:	4fc8                	lw	a0,28(a5)
80001202:	57dc                	lw	a5,44(a5)
80001204:	c018                	sw	a4,0(s0)
80001206:	4098                	lw	a4,0(s1)
80001208:	cc48                	sw	a0,28(s0)
8000120a:	d45c                	sw	a5,44(s0)
8000120c:	01d42223          	sw	t4,4(s0)
80001210:	4795                	li	a5,5
80001212:	01c42423          	sw	t3,8(s0)
80001216:	00642823          	sw	t1,16(s0)
8000121a:	01142a23          	sw	a7,20(s0)
8000121e:	01042c23          	sw	a6,24(s0)
80001222:	d00c                	sw	a1,32(s0)
80001224:	d050                	sw	a2,36(s0)
80001226:	d414                	sw	a3,40(s0)
80001228:	c4dc                	sw	a5,12(s1)
8000122a:	c45c                	sw	a5,12(s0)
8000122c:	c018                	sw	a4,0(s0)
8000122e:	8522                	mv	a0,s0
80001230:	3fa5                	jal	800011a8 <Proc_3>
80001232:	405c                	lw	a5,4(s0)
80001234:	cfb1                	beqz	a5,80001290 <Proc_1+0xc6>
80001236:	409c                	lw	a5,0(s1)
80001238:	40b2                	lw	ra,12(sp)
8000123a:	4422                	lw	s0,8(sp)
8000123c:	0007af83          	lw	t6,0(a5)
80001240:	0047af03          	lw	t5,4(a5)
80001244:	0087ae83          	lw	t4,8(a5)
80001248:	00c7ae03          	lw	t3,12(a5)
8000124c:	0107a303          	lw	t1,16(a5)
80001250:	0147a883          	lw	a7,20(a5)
80001254:	0187a803          	lw	a6,24(a5)
80001258:	4fcc                	lw	a1,28(a5)
8000125a:	5390                	lw	a2,32(a5)
8000125c:	53d4                	lw	a3,36(a5)
8000125e:	5798                	lw	a4,40(a5)
80001260:	57dc                	lw	a5,44(a5)
80001262:	01f4a023          	sw	t6,0(s1)
80001266:	01e4a223          	sw	t5,4(s1)
8000126a:	01d4a423          	sw	t4,8(s1)
8000126e:	01c4a623          	sw	t3,12(s1)
80001272:	0064a823          	sw	t1,16(s1)
80001276:	0114aa23          	sw	a7,20(s1)
8000127a:	0104ac23          	sw	a6,24(s1)
8000127e:	cccc                	sw	a1,28(s1)
80001280:	d090                	sw	a2,32(s1)
80001282:	d0d4                	sw	a3,36(s1)
80001284:	d498                	sw	a4,40(s1)
80001286:	d4dc                	sw	a5,44(s1)
80001288:	4902                	lw	s2,0(sp)
8000128a:	4492                	lw	s1,4(sp)
8000128c:	0141                	addi	sp,sp,16
8000128e:	8082                	ret
80001290:	4488                	lw	a0,8(s1)
80001292:	4799                	li	a5,6
80001294:	00840593          	addi	a1,s0,8
80001298:	c45c                	sw	a5,12(s0)
8000129a:	3db9                	jal	800010f8 <Proc_6>
8000129c:	00092783          	lw	a5,0(s2)
800012a0:	4448                	lw	a0,12(s0)
800012a2:	00c40613          	addi	a2,s0,12
800012a6:	439c                	lw	a5,0(a5)
800012a8:	40b2                	lw	ra,12(sp)
800012aa:	4492                	lw	s1,4(sp)
800012ac:	c01c                	sw	a5,0(s0)
800012ae:	4422                	lw	s0,8(sp)
800012b0:	4902                	lw	s2,0(sp)
800012b2:	45a9                	li	a1,10
800012b4:	0141                	addi	sp,sp,16
800012b6:	bb49                	j	80001048 <Proc_7>

800012b8 <Proc_4>:
800012b8:	0ffff717          	auipc	a4,0xffff
800012bc:	d6870713          	addi	a4,a4,-664 # 90000020 <Bool_Glob>
800012c0:	4314                	lw	a3,0(a4)
800012c2:	0ffff797          	auipc	a5,0xffff
800012c6:	d5b7c783          	lbu	a5,-677(a5) # 9000001d <Ch_1_Glob>
800012ca:	fbf78793          	addi	a5,a5,-65
800012ce:	0017b793          	seqz	a5,a5
800012d2:	8fd5                	or	a5,a5,a3
800012d4:	c31c                	sw	a5,0(a4)
800012d6:	04200793          	li	a5,66
800012da:	0ffff717          	auipc	a4,0xffff
800012de:	d4f70123          	sb	a5,-702(a4) # 9000001c <Ch_2_Glob>
800012e2:	8082                	ret

800012e4 <Proc_5>:
800012e4:	04100793          	li	a5,65
800012e8:	0ffff717          	auipc	a4,0xffff
800012ec:	d2f70aa3          	sb	a5,-715(a4) # 9000001d <Ch_1_Glob>
800012f0:	0ffff797          	auipc	a5,0xffff
800012f4:	d207a823          	sw	zero,-720(a5) # 90000020 <Bool_Glob>
800012f8:	8082                	ret

800012fa <vprintfmt>:
800012fa:	714d                	addi	sp,sp,-336
800012fc:	13a12023          	sw	s10,288(sp)
80001300:	40000d37          	lui	s10,0x40000
80001304:	fffd0793          	addi	a5,s10,-1 # 3fffffff <_tbss_end+0x3fffffbb>
80001308:	14812423          	sw	s0,328(sp)
8000130c:	14912223          	sw	s1,324(sp)
80001310:	15212023          	sw	s2,320(sp)
80001314:	13512a23          	sw	s5,308(sp)
80001318:	14112623          	sw	ra,332(sp)
8000131c:	13312e23          	sw	s3,316(sp)
80001320:	13412c23          	sw	s4,312(sp)
80001324:	13612823          	sw	s6,304(sp)
80001328:	13712623          	sw	s7,300(sp)
8000132c:	13812423          	sw	s8,296(sp)
80001330:	13912223          	sw	s9,292(sp)
80001334:	11b12e23          	sw	s11,284(sp)
80001338:	892a                	mv	s2,a0
8000133a:	84ae                	mv	s1,a1
8000133c:	8432                	mv	s0,a2
8000133e:	c436                	sw	a3,8(sp)
80001340:	02500a93          	li	s5,37
80001344:	c63e                	sw	a5,12(sp)
80001346:	a029                	j	80001350 <vprintfmt+0x56>
80001348:	c531                	beqz	a0,80001394 <vprintfmt+0x9a>
8000134a:	85a6                	mv	a1,s1
8000134c:	0405                	addi	s0,s0,1
8000134e:	9902                	jalr	s2
80001350:	00044503          	lbu	a0,0(s0)
80001354:	ff551ae3          	bne	a0,s5,80001348 <vprintfmt+0x4e>
80001358:	00144683          	lbu	a3,1(s0)
8000135c:	00140b13          	addi	s6,s0,1
80001360:	875a                	mv	a4,s6
80001362:	02000b93          	li	s7,32
80001366:	5a7d                	li	s4,-1
80001368:	59fd                	li	s3,-1
8000136a:	4581                	li	a1,0
8000136c:	05500513          	li	a0,85
80001370:	4825                	li	a6,9
80001372:	fdd68793          	addi	a5,a3,-35
80001376:	0ff7f793          	andi	a5,a5,255
8000137a:	00170413          	addi	s0,a4,1
8000137e:	26f56263          	bltu	a0,a5,800015e2 <vprintfmt+0x2e8>
80001382:	00002617          	auipc	a2,0x2
80001386:	f8a60613          	addi	a2,a2,-118 # 8000330c <__umoddi3+0x974>
8000138a:	078a                	slli	a5,a5,0x2
8000138c:	97b2                	add	a5,a5,a2
8000138e:	439c                	lw	a5,0(a5)
80001390:	97b2                	add	a5,a5,a2
80001392:	8782                	jr	a5
80001394:	14c12083          	lw	ra,332(sp)
80001398:	14812403          	lw	s0,328(sp)
8000139c:	14412483          	lw	s1,324(sp)
800013a0:	14012903          	lw	s2,320(sp)
800013a4:	13c12983          	lw	s3,316(sp)
800013a8:	13812a03          	lw	s4,312(sp)
800013ac:	13412a83          	lw	s5,308(sp)
800013b0:	13012b03          	lw	s6,304(sp)
800013b4:	12c12b83          	lw	s7,300(sp)
800013b8:	12812c03          	lw	s8,296(sp)
800013bc:	12412c83          	lw	s9,292(sp)
800013c0:	12012d03          	lw	s10,288(sp)
800013c4:	11c12d83          	lw	s11,284(sp)
800013c8:	6171                	addi	sp,sp,336
800013ca:	8082                	ret
800013cc:	4b21                	li	s6,8
800013ce:	c202                	sw	zero,4(sp)
800013d0:	4785                	li	a5,1
800013d2:	1ab7d963          	ble	a1,a5,80001584 <vprintfmt+0x28a>
800013d6:	47a2                	lw	a5,8(sp)
800013d8:	00778c93          	addi	s9,a5,7
800013dc:	ff8cf793          	andi	a5,s9,-8
800013e0:	0007ad83          	lw	s11,0(a5)
800013e4:	0047ac03          	lw	s8,4(a5)
800013e8:	00878713          	addi	a4,a5,8
800013ec:	c43a                	sw	a4,8(sp)
800013ee:	865a                	mv	a2,s6
800013f0:	4681                	li	a3,0
800013f2:	856e                	mv	a0,s11
800013f4:	85e2                	mv	a1,s8
800013f6:	5a2010ef          	jal	ra,80002998 <__umoddi3>
800013fa:	c82a                	sw	a0,16(sp)
800013fc:	4781                	li	a5,0
800013fe:	1f878863          	beq	a5,s8,800015ee <vprintfmt+0x2f4>
80001402:	01410c93          	addi	s9,sp,20
80001406:	4a05                	li	s4,1
80001408:	865a                	mv	a2,s6
8000140a:	4681                	li	a3,0
8000140c:	856e                	mv	a0,s11
8000140e:	85e2                	mv	a1,s8
80001410:	1e6010ef          	jal	ra,800025f6 <__udivdi3>
80001414:	865a                	mv	a2,s6
80001416:	4681                	li	a3,0
80001418:	8daa                	mv	s11,a0
8000141a:	8c2e                	mv	s8,a1
8000141c:	57c010ef          	jal	ra,80002998 <__umoddi3>
80001420:	4792                	lw	a5,4(sp)
80001422:	00aca023          	sw	a0,0(s9)
80001426:	001a0d13          	addi	s10,s4,1
8000142a:	0c91                	addi	s9,s9,4
8000142c:	01878463          	beq	a5,s8,80001434 <vprintfmt+0x13a>
80001430:	8a6a                	mv	s4,s10
80001432:	bfd9                	j	80001408 <vprintfmt+0x10e>
80001434:	ff6dfee3          	bleu	s6,s11,80001430 <vprintfmt+0x136>
80001438:	013d5863          	ble	s3,s10,80001448 <vprintfmt+0x14e>
8000143c:	19fd                	addi	s3,s3,-1
8000143e:	85a6                	mv	a1,s1
80001440:	855e                	mv	a0,s7
80001442:	9902                	jalr	s2
80001444:	ff3d4ce3          	blt	s10,s3,8000143c <vprintfmt+0x142>
80001448:	002a1793          	slli	a5,s4,0x2
8000144c:	0a18                	addi	a4,sp,272
8000144e:	97ba                	add	a5,a5,a4
80001450:	f007a503          	lw	a0,-256(a5)
80001454:	47b2                	lw	a5,12(sp)
80001456:	4b25                	li	s6,9
80001458:	00fa09b3          	add	s3,s4,a5
8000145c:	098a                	slli	s3,s3,0x2
8000145e:	081c                	addi	a5,sp,16
80001460:	99be                	add	s3,s3,a5
80001462:	a029                	j	8000146c <vprintfmt+0x172>
80001464:	0009a503          	lw	a0,0(s3)
80001468:	1a7d                	addi	s4,s4,-1
8000146a:	19f1                	addi	s3,s3,-4
8000146c:	03000793          	li	a5,48
80001470:	00ab7463          	bleu	a0,s6,80001478 <vprintfmt+0x17e>
80001474:	05700793          	li	a5,87
80001478:	85a6                	mv	a1,s1
8000147a:	953e                	add	a0,a0,a5
8000147c:	9902                	jalr	s2
8000147e:	ff4043e3          	bgtz	s4,80001464 <vprintfmt+0x16a>
80001482:	b5f9                	j	80001350 <vprintfmt+0x56>
80001484:	03000513          	li	a0,48
80001488:	85a6                	mv	a1,s1
8000148a:	9902                	jalr	s2
8000148c:	85a6                	mv	a1,s1
8000148e:	07800513          	li	a0,120
80001492:	9902                	jalr	s2
80001494:	47a2                	lw	a5,8(sp)
80001496:	4b41                	li	s6,16
80001498:	c202                	sw	zero,4(sp)
8000149a:	00478693          	addi	a3,a5,4
8000149e:	47a2                	lw	a5,8(sp)
800014a0:	4c01                	li	s8,0
800014a2:	0007ad83          	lw	s11,0(a5)
800014a6:	c436                	sw	a3,8(sp)
800014a8:	b799                	j	800013ee <vprintfmt+0xf4>
800014aa:	47a2                	lw	a5,8(sp)
800014ac:	00174683          	lbu	a3,1(a4)
800014b0:	8722                	mv	a4,s0
800014b2:	0007aa03          	lw	s4,0(a5)
800014b6:	0791                	addi	a5,a5,4
800014b8:	c43e                	sw	a5,8(sp)
800014ba:	ea09dce3          	bgez	s3,80001372 <vprintfmt+0x78>
800014be:	89d2                	mv	s3,s4
800014c0:	5a7d                	li	s4,-1
800014c2:	bd45                	j	80001372 <vprintfmt+0x78>
800014c4:	00174683          	lbu	a3,1(a4)
800014c8:	02d00b93          	li	s7,45
800014cc:	8722                	mv	a4,s0
800014ce:	b555                	j	80001372 <vprintfmt+0x78>
800014d0:	fff9c793          	not	a5,s3
800014d4:	87fd                	srai	a5,a5,0x1f
800014d6:	00174683          	lbu	a3,1(a4)
800014da:	00f9f9b3          	and	s3,s3,a5
800014de:	8722                	mv	a4,s0
800014e0:	bd49                	j	80001372 <vprintfmt+0x78>
800014e2:	00174683          	lbu	a3,1(a4)
800014e6:	03000b93          	li	s7,48
800014ea:	8722                	mv	a4,s0
800014ec:	b559                	j	80001372 <vprintfmt+0x78>
800014ee:	00174603          	lbu	a2,1(a4)
800014f2:	fd068a13          	addi	s4,a3,-48
800014f6:	8722                	mv	a4,s0
800014f8:	fd060793          	addi	a5,a2,-48
800014fc:	86b2                	mv	a3,a2
800014fe:	faf86ee3          	bltu	a6,a5,800014ba <vprintfmt+0x1c0>
80001502:	002a1793          	slli	a5,s4,0x2
80001506:	9a3e                	add	s4,s4,a5
80001508:	0705                	addi	a4,a4,1
8000150a:	0a06                	slli	s4,s4,0x1
8000150c:	9a32                	add	s4,s4,a2
8000150e:	00074603          	lbu	a2,0(a4)
80001512:	fd0a0a13          	addi	s4,s4,-48
80001516:	fd060793          	addi	a5,a2,-48
8000151a:	86b2                	mv	a3,a2
8000151c:	fef873e3          	bleu	a5,a6,80001502 <vprintfmt+0x208>
80001520:	bf69                	j	800014ba <vprintfmt+0x1c0>
80001522:	47a2                	lw	a5,8(sp)
80001524:	85a6                	mv	a1,s1
80001526:	4388                	lw	a0,0(a5)
80001528:	00478c93          	addi	s9,a5,4
8000152c:	9902                	jalr	s2
8000152e:	c466                	sw	s9,8(sp)
80001530:	b505                	j	80001350 <vprintfmt+0x56>
80001532:	4785                	li	a5,1
80001534:	12b7d963          	ble	a1,a5,80001666 <vprintfmt+0x36c>
80001538:	47a2                	lw	a5,8(sp)
8000153a:	079d                	addi	a5,a5,7
8000153c:	9be1                	andi	a5,a5,-8
8000153e:	0007ad83          	lw	s11,0(a5)
80001542:	0047ac03          	lw	s8,4(a5)
80001546:	00878713          	addi	a4,a5,8
8000154a:	c43a                	sw	a4,8(sp)
8000154c:	000c5f63          	bgez	s8,8000156a <vprintfmt+0x270>
80001550:	85a6                	mv	a1,s1
80001552:	02d00513          	li	a0,45
80001556:	9902                	jalr	s2
80001558:	41b00733          	neg	a4,s11
8000155c:	00e036b3          	snez	a3,a4
80001560:	418007b3          	neg	a5,s8
80001564:	8dba                	mv	s11,a4
80001566:	40d78c33          	sub	s8,a5,a3
8000156a:	4b29                	li	s6,10
8000156c:	c202                	sw	zero,4(sp)
8000156e:	b541                	j	800013ee <vprintfmt+0xf4>
80001570:	00174683          	lbu	a3,1(a4)
80001574:	0585                	addi	a1,a1,1
80001576:	8722                	mv	a4,s0
80001578:	bbed                	j	80001372 <vprintfmt+0x78>
8000157a:	c202                	sw	zero,4(sp)
8000157c:	4785                	li	a5,1
8000157e:	4b29                	li	s6,10
80001580:	e4b7cbe3          	blt	a5,a1,800013d6 <vprintfmt+0xdc>
80001584:	47a2                	lw	a5,8(sp)
80001586:	00478693          	addi	a3,a5,4
8000158a:	bf11                	j	8000149e <vprintfmt+0x1a4>
8000158c:	4b41                	li	s6,16
8000158e:	c202                	sw	zero,4(sp)
80001590:	b581                	j	800013d0 <vprintfmt+0xd6>
80001592:	00174683          	lbu	a3,1(a4)
80001596:	8722                	mv	a4,s0
80001598:	bbe9                	j	80001372 <vprintfmt+0x78>
8000159a:	85a6                	mv	a1,s1
8000159c:	02500513          	li	a0,37
800015a0:	9902                	jalr	s2
800015a2:	b37d                	j	80001350 <vprintfmt+0x56>
800015a4:	47a2                	lw	a5,8(sp)
800015a6:	0007ab03          	lw	s6,0(a5)
800015aa:	00478c93          	addi	s9,a5,4
800015ae:	0c0b0763          	beqz	s6,8000167c <vprintfmt+0x382>
800015b2:	05305c63          	blez	s3,8000160a <vprintfmt+0x310>
800015b6:	02d00793          	li	a5,45
800015ba:	0afb8163          	beq	s7,a5,8000165c <vprintfmt+0x362>
800015be:	080a0263          	beqz	s4,80001642 <vprintfmt+0x348>
800015c2:	000b4783          	lbu	a5,0(s6)
800015c6:	cfb5                	beqz	a5,80001642 <vprintfmt+0x348>
800015c8:	001b0793          	addi	a5,s6,1
800015cc:	014b0633          	add	a2,s6,s4
800015d0:	0cf60963          	beq	a2,a5,800016a2 <vprintfmt+0x3a8>
800015d4:	00178713          	addi	a4,a5,1
800015d8:	fff74683          	lbu	a3,-1(a4)
800015dc:	c28d                	beqz	a3,800015fe <vprintfmt+0x304>
800015de:	87ba                	mv	a5,a4
800015e0:	bfc5                	j	800015d0 <vprintfmt+0x2d6>
800015e2:	85a6                	mv	a1,s1
800015e4:	02500513          	li	a0,37
800015e8:	9902                	jalr	s2
800015ea:	845a                	mv	s0,s6
800015ec:	b395                	j	80001350 <vprintfmt+0x56>
800015ee:	e16dfae3          	bleu	s6,s11,80001402 <vprintfmt+0x108>
800015f2:	4785                	li	a5,1
800015f4:	4a01                	li	s4,0
800015f6:	4d05                	li	s10,1
800015f8:	e537c2e3          	blt	a5,s3,8000143c <vprintfmt+0x142>
800015fc:	bda1                	j	80001454 <vprintfmt+0x15a>
800015fe:	416787b3          	sub	a5,a5,s6
80001602:	40f989b3          	sub	s3,s3,a5
80001606:	03304e63          	bgtz	s3,80001642 <vprintfmt+0x348>
8000160a:	000b4503          	lbu	a0,0(s6)
8000160e:	c505                	beqz	a0,80001636 <vprintfmt+0x33c>
80001610:	5bfd                	li	s7,-1
80001612:	020a5463          	bgez	s4,8000163a <vprintfmt+0x340>
80001616:	85a6                	mv	a1,s1
80001618:	0b05                	addi	s6,s6,1
8000161a:	9902                	jalr	s2
8000161c:	000b4503          	lbu	a0,0(s6)
80001620:	19fd                	addi	s3,s3,-1
80001622:	f965                	bnez	a0,80001612 <vprintfmt+0x318>
80001624:	01305963          	blez	s3,80001636 <vprintfmt+0x33c>
80001628:	19fd                	addi	s3,s3,-1
8000162a:	85a6                	mv	a1,s1
8000162c:	02000513          	li	a0,32
80001630:	9902                	jalr	s2
80001632:	fe099be3          	bnez	s3,80001628 <vprintfmt+0x32e>
80001636:	c466                	sw	s9,8(sp)
80001638:	bb21                	j	80001350 <vprintfmt+0x56>
8000163a:	1a7d                	addi	s4,s4,-1
8000163c:	fd7a1de3          	bne	s4,s7,80001616 <vprintfmt+0x31c>
80001640:	b7d5                	j	80001624 <vprintfmt+0x32a>
80001642:	19fd                	addi	s3,s3,-1
80001644:	85a6                	mv	a1,s1
80001646:	855e                	mv	a0,s7
80001648:	9902                	jalr	s2
8000164a:	fc0980e3          	beqz	s3,8000160a <vprintfmt+0x310>
8000164e:	19fd                	addi	s3,s3,-1
80001650:	85a6                	mv	a1,s1
80001652:	855e                	mv	a0,s7
80001654:	9902                	jalr	s2
80001656:	fe0996e3          	bnez	s3,80001642 <vprintfmt+0x348>
8000165a:	bf45                	j	8000160a <vprintfmt+0x310>
8000165c:	000b4503          	lbu	a0,0(s6)
80001660:	d561                	beqz	a0,80001628 <vprintfmt+0x32e>
80001662:	5bfd                	li	s7,-1
80001664:	b77d                	j	80001612 <vprintfmt+0x318>
80001666:	4722                	lw	a4,8(sp)
80001668:	00470793          	addi	a5,a4,4
8000166c:	e191                	bnez	a1,80001670 <vprintfmt+0x376>
8000166e:	4722                	lw	a4,8(sp)
80001670:	00072d83          	lw	s11,0(a4)
80001674:	c43e                	sw	a5,8(sp)
80001676:	41fddc13          	srai	s8,s11,0x1f
8000167a:	bdc9                	j	8000154c <vprintfmt+0x252>
8000167c:	01305b63          	blez	s3,80001692 <vprintfmt+0x398>
80001680:	02d00793          	li	a5,45
80001684:	00fb8763          	beq	s7,a5,80001692 <vprintfmt+0x398>
80001688:	00002b17          	auipc	s6,0x2
8000168c:	c44b0b13          	addi	s6,s6,-956 # 800032cc <__umoddi3+0x934>
80001690:	b73d                	j	800015be <vprintfmt+0x2c4>
80001692:	00002b17          	auipc	s6,0x2
80001696:	c3ab0b13          	addi	s6,s6,-966 # 800032cc <__umoddi3+0x934>
8000169a:	02800513          	li	a0,40
8000169e:	5bfd                	li	s7,-1
800016a0:	bf8d                	j	80001612 <vprintfmt+0x318>
800016a2:	41660633          	sub	a2,a2,s6
800016a6:	40c989b3          	sub	s3,s3,a2
800016aa:	f9304ce3          	bgtz	s3,80001642 <vprintfmt+0x348>
800016ae:	bfb1                	j	8000160a <vprintfmt+0x310>

800016b0 <sprintf_putch.2925>:
800016b0:	419c                	lw	a5,0(a1)
800016b2:	00a78023          	sb	a0,0(a5)
800016b6:	419c                	lw	a5,0(a1)
800016b8:	0785                	addi	a5,a5,1
800016ba:	c19c                	sw	a5,0(a1)
800016bc:	8082                	ret

800016be <syscall.constprop.2>:
800016be:	7119                	addi	sp,sp,-128
800016c0:	03f10813          	addi	a6,sp,63
800016c4:	fc087813          	andi	a6,a6,-64
800016c8:	04000713          	li	a4,64
800016cc:	00e82023          	sw	a4,0(a6)
800016d0:	4781                	li	a5,0
800016d2:	00f82223          	sw	a5,4(a6)
800016d6:	4705                	li	a4,1
800016d8:	00e82423          	sw	a4,8(a6)
800016dc:	4781                	li	a5,0
800016de:	00f82623          	sw	a5,12(a6)
800016e2:	00a82823          	sw	a0,16(a6)
800016e6:	00b82a23          	sw	a1,20(a6)
800016ea:	00c82c23          	sw	a2,24(a6)
800016ee:	00d82e23          	sw	a3,28(a6)
800016f2:	0ff0000f          	fence
800016f6:	00000697          	auipc	a3,0x0
800016fa:	90a68693          	addi	a3,a3,-1782 # 80001000 <tohost>
800016fe:	0106a023          	sw	a6,0(a3)
80001702:	4781                	li	a5,0
80001704:	c2dc                	sw	a5,4(a3)
80001706:	00000697          	auipc	a3,0x0
8000170a:	93a68693          	addi	a3,a3,-1734 # 80001040 <fromhost>
8000170e:	4298                	lw	a4,0(a3)
80001710:	42dc                	lw	a5,4(a3)
80001712:	8f5d                	or	a4,a4,a5
80001714:	df6d                	beqz	a4,8000170e <syscall.constprop.2+0x50>
80001716:	4701                	li	a4,0
80001718:	c298                	sw	a4,0(a3)
8000171a:	4781                	li	a5,0
8000171c:	c2dc                	sw	a5,4(a3)
8000171e:	0ff0000f          	fence
80001722:	00082503          	lw	a0,0(a6)
80001726:	00482583          	lw	a1,4(a6)
8000172a:	6109                	addi	sp,sp,128
8000172c:	8082                	ret

8000172e <putchar>:
8000172e:	1141                	addi	sp,sp,-16
80001730:	c422                	sw	s0,8(sp)
80001732:	04022583          	lw	a1,64(tp) # 40 <buflen.2811>
80001736:	00020793          	mv	a5,tp
8000173a:	c606                	sw	ra,12(sp)
8000173c:	97ae                	add	a5,a5,a1
8000173e:	00158613          	addi	a2,a1,1
80001742:	00a78023          	sb	a0,0(a5)
80001746:	04c22023          	sw	a2,64(tp) # 40 <buflen.2811>
8000174a:	47a9                	li	a5,10
8000174c:	00f50b63          	beq	a0,a5,80001762 <putchar+0x34>
80001750:	04000793          	li	a5,64
80001754:	00f60763          	beq	a2,a5,80001762 <putchar+0x34>
80001758:	40b2                	lw	ra,12(sp)
8000175a:	4422                	lw	s0,8(sp)
8000175c:	4501                	li	a0,0
8000175e:	0141                	addi	sp,sp,16
80001760:	8082                	ret
80001762:	41f65693          	srai	a3,a2,0x1f
80001766:	00020513          	mv	a0,tp
8000176a:	4581                	li	a1,0
8000176c:	3f89                	jal	800016be <syscall.constprop.2>
8000176e:	04022023          	sw	zero,64(tp) # 40 <buflen.2811>
80001772:	40b2                	lw	ra,12(sp)
80001774:	4422                	lw	s0,8(sp)
80001776:	4501                	li	a0,0
80001778:	0141                	addi	sp,sp,16
8000177a:	8082                	ret

8000177c <setStats>:
8000177c:	b00027f3          	csrr	a5,mcycle
80001780:	0ffff717          	auipc	a4,0xffff
80001784:	8b870713          	addi	a4,a4,-1864 # 90000038 <counters>
80001788:	e919                	bnez	a0,8000179e <setStats+0x22>
8000178a:	4314                	lw	a3,0(a4)
8000178c:	00002617          	auipc	a2,0x2
80001790:	b4860613          	addi	a2,a2,-1208 # 800032d4 <__umoddi3+0x93c>
80001794:	0ffff597          	auipc	a1,0xffff
80001798:	88c5ae23          	sw	a2,-1892(a1) # 90000030 <counter_names>
8000179c:	8f95                	sub	a5,a5,a3
8000179e:	0ffff697          	auipc	a3,0xffff
800017a2:	88f6ad23          	sw	a5,-1894(a3) # 90000038 <counters>
800017a6:	b02027f3          	csrr	a5,minstret
800017aa:	e919                	bnez	a0,800017c0 <setStats+0x44>
800017ac:	4358                	lw	a4,4(a4)
800017ae:	00002697          	auipc	a3,0x2
800017b2:	b2e68693          	addi	a3,a3,-1234 # 800032dc <__umoddi3+0x944>
800017b6:	0ffff617          	auipc	a2,0xffff
800017ba:	86d62f23          	sw	a3,-1922(a2) # 90000034 <counter_names+0x4>
800017be:	8f99                	sub	a5,a5,a4
800017c0:	0ffff717          	auipc	a4,0xffff
800017c4:	86f72e23          	sw	a5,-1924(a4) # 9000003c <counters+0x4>
800017c8:	8082                	ret

800017ca <tohost_exit>:
800017ca:	0506                	slli	a0,a0,0x1
800017cc:	00000697          	auipc	a3,0x0
800017d0:	83468693          	addi	a3,a3,-1996 # 80001000 <tohost>
800017d4:	00156713          	ori	a4,a0,1
800017d8:	4781                	li	a5,0
800017da:	c298                	sw	a4,0(a3)
800017dc:	c2dc                	sw	a5,4(a3)
800017de:	a001                	j	800017de <tohost_exit+0x14>

800017e0 <handle_trap>:
800017e0:	6605                	lui	a2,0x1
800017e2:	00000797          	auipc	a5,0x0
800017e6:	81e78793          	addi	a5,a5,-2018 # 80001000 <tohost>
800017ea:	a7360613          	addi	a2,a2,-1421 # a73 <_tbss_end+0xa2f>
800017ee:	4681                	li	a3,0
800017f0:	c390                	sw	a2,0(a5)
800017f2:	c3d4                	sw	a3,4(a5)
800017f4:	a001                	j	800017f4 <handle_trap+0x14>

800017f6 <exit>:
800017f6:	1141                	addi	sp,sp,-16
800017f8:	c606                	sw	ra,12(sp)
800017fa:	3fc1                	jal	800017ca <tohost_exit>

800017fc <abort>:
800017fc:	00000797          	auipc	a5,0x0
80001800:	80478793          	addi	a5,a5,-2044 # 80001000 <tohost>
80001804:	10d00613          	li	a2,269
80001808:	4681                	li	a3,0
8000180a:	c390                	sw	a2,0(a5)
8000180c:	c3d4                	sw	a3,4(a5)
8000180e:	a001                	j	8000180e <abort+0x12>

80001810 <printstr>:
80001810:	00054783          	lbu	a5,0(a0)
80001814:	862a                	mv	a2,a0
80001816:	cb89                	beqz	a5,80001828 <printstr+0x18>
80001818:	0605                	addi	a2,a2,1
8000181a:	00064783          	lbu	a5,0(a2)
8000181e:	ffed                	bnez	a5,80001818 <printstr+0x8>
80001820:	8e09                	sub	a2,a2,a0
80001822:	4681                	li	a3,0
80001824:	4581                	li	a1,0
80001826:	bd61                	j	800016be <syscall.constprop.2>
80001828:	4601                	li	a2,0
8000182a:	4681                	li	a3,0
8000182c:	4581                	li	a1,0
8000182e:	bd41                	j	800016be <syscall.constprop.2>

80001830 <thread_entry>:
80001830:	c111                	beqz	a0,80001834 <thread_entry+0x4>
80001832:	a001                	j	80001832 <thread_entry+0x2>
80001834:	8082                	ret

80001836 <printhex>:
80001836:	7179                	addi	sp,sp,-48
80001838:	d606                	sw	ra,44(sp)
8000183a:	01b10793          	addi	a5,sp,27
8000183e:	00b10313          	addi	t1,sp,11
80001842:	48a5                	li	a7,9
80001844:	00f57693          	andi	a3,a0,15
80001848:	01c59813          	slli	a6,a1,0x1c
8000184c:	8111                	srli	a0,a0,0x4
8000184e:	05700613          	li	a2,87
80001852:	0ff6f713          	andi	a4,a3,255
80001856:	00d8e463          	bltu	a7,a3,8000185e <printhex+0x28>
8000185a:	03000613          	li	a2,48
8000185e:	9732                	add	a4,a4,a2
80001860:	00e78023          	sb	a4,0(a5)
80001864:	17fd                	addi	a5,a5,-1
80001866:	00a86533          	or	a0,a6,a0
8000186a:	8191                	srli	a1,a1,0x4
8000186c:	fcf31ce3          	bne	t1,a5,80001844 <printhex+0xe>
80001870:	0068                	addi	a0,sp,12
80001872:	00010e23          	sb	zero,28(sp)
80001876:	3f69                	jal	80001810 <printstr>
80001878:	50b2                	lw	ra,44(sp)
8000187a:	6145                	addi	sp,sp,48
8000187c:	8082                	ret

8000187e <printf>:
8000187e:	7139                	addi	sp,sp,-64
80001880:	02410313          	addi	t1,sp,36
80001884:	d22e                	sw	a1,36(sp)
80001886:	d432                	sw	a2,40(sp)
80001888:	d636                	sw	a3,44(sp)
8000188a:	862a                	mv	a2,a0
8000188c:	869a                	mv	a3,t1
8000188e:	00000517          	auipc	a0,0x0
80001892:	ea050513          	addi	a0,a0,-352 # 8000172e <putchar>
80001896:	4581                	li	a1,0
80001898:	ce06                	sw	ra,28(sp)
8000189a:	d83a                	sw	a4,48(sp)
8000189c:	da3e                	sw	a5,52(sp)
8000189e:	dc42                	sw	a6,56(sp)
800018a0:	de46                	sw	a7,60(sp)
800018a2:	c61a                	sw	t1,12(sp)
800018a4:	3c99                	jal	800012fa <vprintfmt>
800018a6:	40f2                	lw	ra,28(sp)
800018a8:	4501                	li	a0,0
800018aa:	6121                	addi	sp,sp,64
800018ac:	8082                	ret

800018ae <sprintf>:
800018ae:	715d                	addi	sp,sp,-80
800018b0:	03810313          	addi	t1,sp,56
800018b4:	d422                	sw	s0,40(sp)
800018b6:	c62a                	sw	a0,12(sp)
800018b8:	dc32                	sw	a2,56(sp)
800018ba:	de36                	sw	a3,60(sp)
800018bc:	842a                	mv	s0,a0
800018be:	862e                	mv	a2,a1
800018c0:	00000517          	auipc	a0,0x0
800018c4:	df050513          	addi	a0,a0,-528 # 800016b0 <sprintf_putch.2925>
800018c8:	006c                	addi	a1,sp,12
800018ca:	869a                	mv	a3,t1
800018cc:	d606                	sw	ra,44(sp)
800018ce:	c2be                	sw	a5,68(sp)
800018d0:	c0ba                	sw	a4,64(sp)
800018d2:	c4c2                	sw	a6,72(sp)
800018d4:	c6c6                	sw	a7,76(sp)
800018d6:	ce1a                	sw	t1,28(sp)
800018d8:	340d                	jal	800012fa <vprintfmt>
800018da:	47b2                	lw	a5,12(sp)
800018dc:	00078023          	sb	zero,0(a5)
800018e0:	4532                	lw	a0,12(sp)
800018e2:	50b2                	lw	ra,44(sp)
800018e4:	8d01                	sub	a0,a0,s0
800018e6:	5422                	lw	s0,40(sp)
800018e8:	6161                	addi	sp,sp,80
800018ea:	8082                	ret

800018ec <memcpy>:
800018ec:	00c5e7b3          	or	a5,a1,a2
800018f0:	8fc9                	or	a5,a5,a0
800018f2:	8b8d                	andi	a5,a5,3
800018f4:	00c506b3          	add	a3,a0,a2
800018f8:	cf91                	beqz	a5,80001914 <memcpy+0x28>
800018fa:	962e                	add	a2,a2,a1
800018fc:	87aa                	mv	a5,a0
800018fe:	02d57763          	bleu	a3,a0,8000192c <memcpy+0x40>
80001902:	0585                	addi	a1,a1,1
80001904:	fff5c703          	lbu	a4,-1(a1)
80001908:	0785                	addi	a5,a5,1
8000190a:	fee78fa3          	sb	a4,-1(a5)
8000190e:	feb61ae3          	bne	a2,a1,80001902 <memcpy+0x16>
80001912:	8082                	ret
80001914:	fed57fe3          	bleu	a3,a0,80001912 <memcpy+0x26>
80001918:	87aa                	mv	a5,a0
8000191a:	0591                	addi	a1,a1,4
8000191c:	ffc5a703          	lw	a4,-4(a1)
80001920:	0791                	addi	a5,a5,4
80001922:	fee7ae23          	sw	a4,-4(a5)
80001926:	fed7eae3          	bltu	a5,a3,8000191a <memcpy+0x2e>
8000192a:	8082                	ret
8000192c:	8082                	ret

8000192e <memset>:
8000192e:	00c567b3          	or	a5,a0,a2
80001932:	8b8d                	andi	a5,a5,3
80001934:	962a                	add	a2,a2,a0
80001936:	cf81                	beqz	a5,8000194e <memset+0x20>
80001938:	0ff5f593          	andi	a1,a1,255
8000193c:	87aa                	mv	a5,a0
8000193e:	02c57963          	bleu	a2,a0,80001970 <memset+0x42>
80001942:	0785                	addi	a5,a5,1
80001944:	feb78fa3          	sb	a1,-1(a5)
80001948:	fef61de3          	bne	a2,a5,80001942 <memset+0x14>
8000194c:	8082                	ret
8000194e:	0ff5f593          	andi	a1,a1,255
80001952:	00859713          	slli	a4,a1,0x8
80001956:	8f4d                	or	a4,a4,a1
80001958:	01071793          	slli	a5,a4,0x10
8000195c:	8f5d                	or	a4,a4,a5
8000195e:	fec577e3          	bleu	a2,a0,8000194c <memset+0x1e>
80001962:	87aa                	mv	a5,a0
80001964:	0791                	addi	a5,a5,4
80001966:	fee7ae23          	sw	a4,-4(a5)
8000196a:	fec7ede3          	bltu	a5,a2,80001964 <memset+0x36>
8000196e:	8082                	ret
80001970:	8082                	ret

80001972 <_init>:
80001972:	7135                	addi	sp,sp,-160
80001974:	cd22                	sw	s0,152(sp)
80001976:	cb26                	sw	s1,148(sp)
80001978:	00020493          	mv	s1,tp
8000197c:	00020413          	mv	s0,tp
80001980:	40848433          	sub	s0,s1,s0
80001984:	8622                	mv	a2,s0
80001986:	c74e                	sw	s3,140(sp)
80001988:	c552                	sw	s4,136(sp)
8000198a:	89aa                	mv	s3,a0
8000198c:	8a2e                	mv	s4,a1
8000198e:	8512                	mv	a0,tp
80001990:	10001597          	auipc	a1,0x10001
80001994:	eb058593          	addi	a1,a1,-336 # 90002840 <_end>
80001998:	cf06                	sw	ra,156(sp)
8000199a:	c94a                	sw	s2,144(sp)
8000199c:	c356                	sw	s5,132(sp)
8000199e:	8a92                	mv	s5,tp
800019a0:	37b1                	jal	800018ec <memcpy>
800019a2:	04420613          	addi	a2,tp,68 # 44 <_tbss_end>
800019a6:	8e05                	sub	a2,a2,s1
800019a8:	4581                	li	a1,0
800019aa:	008a8533          	add	a0,s5,s0
800019ae:	3741                	jal	8000192e <memset>
800019b0:	85d2                	mv	a1,s4
800019b2:	854e                	mv	a0,s3
800019b4:	3db5                	jal	80001830 <thread_entry>
800019b6:	4581                	li	a1,0
800019b8:	4501                	li	a0,0
800019ba:	2a15                	jal	80001aee <main>
800019bc:	0fffe417          	auipc	s0,0xfffe
800019c0:	67c40413          	addi	s0,s0,1660 # 90000038 <counters>
800019c4:	4014                	lw	a3,0(s0)
800019c6:	03f10913          	addi	s2,sp,63
800019ca:	fc097913          	andi	s2,s2,-64
800019ce:	84aa                	mv	s1,a0
800019d0:	ea85                	bnez	a3,80001a00 <_init+0x8e>
800019d2:	4054                	lw	a3,4(s0)
800019d4:	e299                	bnez	a3,800019da <_init+0x68>
800019d6:	8526                	mv	a0,s1
800019d8:	3bcd                	jal	800017ca <tohost_exit>
800019da:	844a                	mv	s0,s2
800019dc:	0fffe997          	auipc	s3,0xfffe
800019e0:	65498993          	addi	s3,s3,1620 # 90000030 <counter_names>
800019e4:	0049a603          	lw	a2,4(s3)
800019e8:	8522                	mv	a0,s0
800019ea:	00002597          	auipc	a1,0x2
800019ee:	91658593          	addi	a1,a1,-1770 # 80003300 <__umoddi3+0x968>
800019f2:	3d75                	jal	800018ae <sprintf>
800019f4:	942a                	add	s0,s0,a0
800019f6:	fe8900e3          	beq	s2,s0,800019d6 <_init+0x64>
800019fa:	854a                	mv	a0,s2
800019fc:	3d11                	jal	80001810 <printstr>
800019fe:	bfe1                	j	800019d6 <_init+0x64>
80001a00:	0fffe997          	auipc	s3,0xfffe
80001a04:	63098993          	addi	s3,s3,1584 # 90000030 <counter_names>
80001a08:	0009a603          	lw	a2,0(s3)
80001a0c:	00002597          	auipc	a1,0x2
80001a10:	8f458593          	addi	a1,a1,-1804 # 80003300 <__umoddi3+0x968>
80001a14:	854a                	mv	a0,s2
80001a16:	3d61                	jal	800018ae <sprintf>
80001a18:	4054                	lw	a3,4(s0)
80001a1a:	00a90433          	add	s0,s2,a0
80001a1e:	dee1                	beqz	a3,800019f6 <_init+0x84>
80001a20:	b7d1                	j	800019e4 <_init+0x72>

80001a22 <strlen>:
80001a22:	00054783          	lbu	a5,0(a0)
80001a26:	872a                	mv	a4,a0
80001a28:	c799                	beqz	a5,80001a36 <strlen+0x14>
80001a2a:	0505                	addi	a0,a0,1
80001a2c:	00054783          	lbu	a5,0(a0)
80001a30:	ffed                	bnez	a5,80001a2a <strlen+0x8>
80001a32:	8d19                	sub	a0,a0,a4
80001a34:	8082                	ret
80001a36:	4501                	li	a0,0
80001a38:	8082                	ret

80001a3a <strnlen>:
80001a3a:	872a                	mv	a4,a0
80001a3c:	cd91                	beqz	a1,80001a58 <strnlen+0x1e>
80001a3e:	00054783          	lbu	a5,0(a0)
80001a42:	cb99                	beqz	a5,80001a58 <strnlen+0x1e>
80001a44:	95aa                	add	a1,a1,a0
80001a46:	a021                	j	80001a4e <strnlen+0x14>
80001a48:	00054783          	lbu	a5,0(a0)
80001a4c:	c781                	beqz	a5,80001a54 <strnlen+0x1a>
80001a4e:	0505                	addi	a0,a0,1
80001a50:	feb51ce3          	bne	a0,a1,80001a48 <strnlen+0xe>
80001a54:	8d19                	sub	a0,a0,a4
80001a56:	8082                	ret
80001a58:	4501                	li	a0,0
80001a5a:	8082                	ret

80001a5c <strcmp>:
80001a5c:	0505                	addi	a0,a0,1
80001a5e:	fff54783          	lbu	a5,-1(a0)
80001a62:	0585                	addi	a1,a1,1
80001a64:	fff5c703          	lbu	a4,-1(a1)
80001a68:	c791                	beqz	a5,80001a74 <strcmp+0x18>
80001a6a:	fee789e3          	beq	a5,a4,80001a5c <strcmp>
80001a6e:	40e78533          	sub	a0,a5,a4
80001a72:	8082                	ret
80001a74:	4781                	li	a5,0
80001a76:	bfe5                	j	80001a6e <strcmp+0x12>

80001a78 <strcpy>:
80001a78:	87aa                	mv	a5,a0
80001a7a:	0585                	addi	a1,a1,1
80001a7c:	fff5c703          	lbu	a4,-1(a1)
80001a80:	0785                	addi	a5,a5,1
80001a82:	fee78fa3          	sb	a4,-1(a5)
80001a86:	fb75                	bnez	a4,80001a7a <strcpy+0x2>
80001a88:	8082                	ret

80001a8a <atol>:
80001a8a:	00054783          	lbu	a5,0(a0)
80001a8e:	02000713          	li	a4,32
80001a92:	00e79763          	bne	a5,a4,80001aa0 <atol+0x16>
80001a96:	0505                	addi	a0,a0,1
80001a98:	00054783          	lbu	a5,0(a0)
80001a9c:	fee78de3          	beq	a5,a4,80001a96 <atol+0xc>
80001aa0:	fd578713          	addi	a4,a5,-43
80001aa4:	0fd77713          	andi	a4,a4,253
80001aa8:	c715                	beqz	a4,80001ad4 <atol+0x4a>
80001aaa:	00054683          	lbu	a3,0(a0)
80001aae:	87aa                	mv	a5,a0
80001ab0:	4601                	li	a2,0
80001ab2:	ce85                	beqz	a3,80001aea <atol+0x60>
80001ab4:	4501                	li	a0,0
80001ab6:	0785                	addi	a5,a5,1
80001ab8:	fd068593          	addi	a1,a3,-48
80001abc:	00251713          	slli	a4,a0,0x2
80001ac0:	0007c683          	lbu	a3,0(a5)
80001ac4:	953a                	add	a0,a0,a4
80001ac6:	0506                	slli	a0,a0,0x1
80001ac8:	952e                	add	a0,a0,a1
80001aca:	f6f5                	bnez	a3,80001ab6 <atol+0x2c>
80001acc:	c219                	beqz	a2,80001ad2 <atol+0x48>
80001ace:	40a00533          	neg	a0,a0
80001ad2:	8082                	ret
80001ad4:	00154683          	lbu	a3,1(a0)
80001ad8:	fd378793          	addi	a5,a5,-45
80001adc:	0017b613          	seqz	a2,a5
80001ae0:	00150793          	addi	a5,a0,1
80001ae4:	fae1                	bnez	a3,80001ab4 <atol+0x2a>
80001ae6:	4501                	li	a0,0
80001ae8:	b7d5                	j	80001acc <atol+0x42>
80001aea:	4501                	li	a0,0
80001aec:	8082                	ret

Disassembly of section .text.startup:

80001aee <main>:
80001aee:	7135                	addi	sp,sp,-160
80001af0:	cf06                	sw	ra,156(sp)
80001af2:	cd22                	sw	s0,152(sp)
80001af4:	cb26                	sw	s1,148(sp)
80001af6:	1100                	addi	s0,sp,160
80001af8:	c94a                	sw	s2,144(sp)
80001afa:	c74e                	sw	s3,140(sp)
80001afc:	c552                	sw	s4,136(sp)
80001afe:	c356                	sw	s5,132(sp)
80001b00:	c15a                	sw	s6,128(sp)
80001b02:	dede                	sw	s7,124(sp)
80001b04:	dce2                	sw	s8,120(sp)
80001b06:	dae6                	sw	s9,116(sp)
80001b08:	d8ea                	sw	s10,112(sp)
80001b0a:	d6ee                	sw	s11,108(sp)
80001b0c:	00001717          	auipc	a4,0x1
80001b10:	21870713          	addi	a4,a4,536 # 80002d24 <__umoddi3+0x38c>
80001b14:	7139                	addi	sp,sp,-64
80001b16:	00001797          	auipc	a5,0x1
80001b1a:	75678793          	addi	a5,a5,1878 # 8000326c <__umoddi3+0x8d4>
80001b1e:	00072383          	lw	t2,0(a4)
80001b22:	860a                	mv	a2,sp
80001b24:	7139                	addi	sp,sp,-64
80001b26:	868a                	mv	a3,sp
80001b28:	00872f83          	lw	t6,8(a4)
80001b2c:	00c72f03          	lw	t5,12(a4)
80001b30:	01072e83          	lw	t4,16(a4)
80001b34:	01472e03          	lw	t3,20(a4)
80001b38:	01872303          	lw	t1,24(a4)
80001b3c:	00472283          	lw	t0,4(a4)
80001b40:	01c75883          	lhu	a7,28(a4)
80001b44:	01e74803          	lbu	a6,30(a4)
80001b48:	438c                	lw	a1,0(a5)
80001b4a:	4709                	li	a4,2
80001b4c:	c698                	sw	a4,8(a3)
80001b4e:	02800713          	li	a4,40
80001b52:	c290                	sw	a2,0(a3)
80001b54:	0076a823          	sw	t2,16(a3)
80001b58:	c6d8                	sw	a4,12(a3)
80001b5a:	0fffe497          	auipc	s1,0xfffe
80001b5e:	4cc4a723          	sw	a2,1230(s1) # 90000028 <Next_Ptr_Glob>
80001b62:	0006a223          	sw	zero,4(a3)
80001b66:	0fffe617          	auipc	a2,0xfffe
80001b6a:	4cd62323          	sw	a3,1222(a2) # 9000002c <Ptr_Glob>
80001b6e:	43c8                	lw	a0,4(a5)
80001b70:	0056aa23          	sw	t0,20(a3)
80001b74:	01c7d703          	lhu	a4,28(a5)
80001b78:	4bd0                	lw	a2,20(a5)
80001b7a:	01f6ac23          	sw	t6,24(a3)
80001b7e:	01e6ae23          	sw	t5,28(a3)
80001b82:	03d6a023          	sw	t4,32(a3)
80001b86:	03c6a223          	sw	t3,36(a3)
80001b8a:	0266a423          	sw	t1,40(a3)
80001b8e:	03169623          	sh	a7,44(a3)
80001b92:	03068723          	sb	a6,46(a3)
80001b96:	0087a883          	lw	a7,8(a5)
80001b9a:	00c7a803          	lw	a6,12(a5)
80001b9e:	4f94                	lw	a3,24(a5)
80001ba0:	f8b42023          	sw	a1,-128(s0)
80001ba4:	4b8c                	lw	a1,16(a5)
80001ba6:	01e7c783          	lbu	a5,30(a5)
80001baa:	f8a42223          	sw	a0,-124(s0)
80001bae:	00001517          	auipc	a0,0x1
80001bb2:	3e250513          	addi	a0,a0,994 # 80002f90 <__umoddi3+0x5f8>
80001bb6:	f8f40f23          	sb	a5,-98(s0)
80001bba:	47a9                	li	a5,10
80001bbc:	f8e41e23          	sh	a4,-100(s0)
80001bc0:	f9142423          	sw	a7,-120(s0)
80001bc4:	0ffff717          	auipc	a4,0xffff
80001bc8:	baf72023          	sw	a5,-1120(a4) # 90000764 <Arr_2_Glob+0x65c>
80001bcc:	f9042623          	sw	a6,-116(s0)
80001bd0:	f8b42823          	sw	a1,-112(s0)
80001bd4:	f8c42a23          	sw	a2,-108(s0)
80001bd8:	f8d42c23          	sw	a3,-104(s0)
80001bdc:	d92ff0ef          	jal	ra,8000116e <debug_printf>
80001be0:	00001597          	auipc	a1,0x1
80001be4:	16458593          	addi	a1,a1,356 # 80002d44 <__umoddi3+0x3ac>
80001be8:	00001517          	auipc	a0,0x1
80001bec:	16c50513          	addi	a0,a0,364 # 80002d54 <__umoddi3+0x3bc>
80001bf0:	d7eff0ef          	jal	ra,8000116e <debug_printf>
80001bf4:	0fffe797          	auipc	a5,0xfffe
80001bf8:	42478793          	addi	a5,a5,1060 # 90000018 <Reg>
80001bfc:	439c                	lw	a5,0(a5)
80001bfe:	60078063          	beqz	a5,800021fe <main+0x710>
80001c02:	00001517          	auipc	a0,0x1
80001c06:	17650513          	addi	a0,a0,374 # 80002d78 <__umoddi3+0x3e0>
80001c0a:	d64ff0ef          	jal	ra,8000116e <debug_printf>
80001c0e:	000f4637          	lui	a2,0xf4
80001c12:	24060613          	addi	a2,a2,576 # f4240 <_tbss_end+0xf41fc>
80001c16:	00001597          	auipc	a1,0x1
80001c1a:	1be58593          	addi	a1,a1,446 # 80002dd4 <__umoddi3+0x43c>
80001c1e:	00001517          	auipc	a0,0x1
80001c22:	1c250513          	addi	a0,a0,450 # 80002de0 <__umoddi3+0x448>
80001c26:	d48ff0ef          	jal	ra,8000116e <debug_printf>
80001c2a:	00001517          	auipc	a0,0x1
80001c2e:	36650513          	addi	a0,a0,870 # 80002f90 <__umoddi3+0x5f8>
80001c32:	d3cff0ef          	jal	ra,8000116e <debug_printf>
80001c36:	1f400793          	li	a5,500
80001c3a:	f6f42623          	sw	a5,-148(s0)
80001c3e:	00001917          	auipc	s2,0x1
80001c42:	64e90913          	addi	s2,s2,1614 # 8000328c <__umoddi3+0x8f4>
80001c46:	0fffe797          	auipc	a5,0xfffe
80001c4a:	3c07a723          	sw	zero,974(a5) # 90000014 <Done>
80001c4e:	0fffed17          	auipc	s10,0xfffe
80001c52:	3ded0d13          	addi	s10,s10,990 # 9000002c <Ptr_Glob>
80001c56:	0fffed97          	auipc	s11,0xfffe
80001c5a:	4b2d8d93          	addi	s11,s11,1202 # 90000108 <Arr_2_Glob>
80001c5e:	00001497          	auipc	s1,0x1
80001c62:	64e48493          	addi	s1,s1,1614 # 800032ac <__umoddi3+0x914>
80001c66:	f6c42983          	lw	s3,-148(s0)
80001c6a:	00001517          	auipc	a0,0x1
80001c6e:	18a50513          	addi	a0,a0,394 # 80002df4 <__umoddi3+0x45c>
80001c72:	85ce                	mv	a1,s3
80001c74:	cfaff0ef          	jal	ra,8000116e <debug_printf>
80001c78:	4505                	li	a0,1
80001c7a:	3609                	jal	8000177c <setStats>
80001c7c:	b00027f3          	csrr	a5,mcycle
80001c80:	4a05                	li	s4,1
80001c82:	00198c93          	addi	s9,s3,1
80001c86:	0fffe717          	auipc	a4,0xfffe
80001c8a:	38f72523          	sw	a5,906(a4) # 90000010 <Begin_Time>
80001c8e:	4989                	li	s3,2
80001c90:	4c05                	li	s8,1
80001c92:	e52ff0ef          	jal	ra,800012e4 <Proc_5>
80001c96:	e22ff0ef          	jal	ra,800012b8 <Proc_4>
80001c9a:	01492603          	lw	a2,20(s2)
80001c9e:	01e94783          	lbu	a5,30(s2)
80001ca2:	00092e83          	lw	t4,0(s2)
80001ca6:	00492e03          	lw	t3,4(s2)
80001caa:	00892303          	lw	t1,8(s2)
80001cae:	00c92883          	lw	a7,12(s2)
80001cb2:	01092803          	lw	a6,16(s2)
80001cb6:	01892683          	lw	a3,24(s2)
80001cba:	01c95703          	lhu	a4,28(s2)
80001cbe:	fa040593          	addi	a1,s0,-96
80001cc2:	f8040513          	addi	a0,s0,-128
80001cc6:	fac42a23          	sw	a2,-76(s0)
80001cca:	faf40f23          	sb	a5,-66(s0)
80001cce:	f7342a23          	sw	s3,-140(s0)
80001cd2:	fbd42023          	sw	t4,-96(s0)
80001cd6:	fbc42223          	sw	t3,-92(s0)
80001cda:	fa642423          	sw	t1,-88(s0)
80001cde:	fb142623          	sw	a7,-84(s0)
80001ce2:	fb042823          	sw	a6,-80(s0)
80001ce6:	fad42c23          	sw	a3,-72(s0)
80001cea:	fae41e23          	sh	a4,-68(s0)
80001cee:	f7842e23          	sw	s8,-132(s0)
80001cf2:	bc0ff0ef          	jal	ra,800010b2 <Func_2>
80001cf6:	f7442603          	lw	a2,-140(s0)
80001cfa:	00153513          	seqz	a0,a0
80001cfe:	0fffe797          	auipc	a5,0xfffe
80001d02:	32a7a123          	sw	a0,802(a5) # 90000020 <Bool_Glob>
80001d06:	02c9c563          	blt	s3,a2,80001d30 <main+0x242>
80001d0a:	00261793          	slli	a5,a2,0x2
80001d0e:	97b2                	add	a5,a5,a2
80001d10:	17f5                	addi	a5,a5,-3
80001d12:	8532                	mv	a0,a2
80001d14:	458d                	li	a1,3
80001d16:	f7840613          	addi	a2,s0,-136
80001d1a:	f6f42c23          	sw	a5,-136(s0)
80001d1e:	b2aff0ef          	jal	ra,80001048 <Proc_7>
80001d22:	f7442603          	lw	a2,-140(s0)
80001d26:	0605                	addi	a2,a2,1
80001d28:	f6c42a23          	sw	a2,-140(s0)
80001d2c:	fcc9dfe3          	ble	a2,s3,80001d0a <main+0x21c>
80001d30:	f7842683          	lw	a3,-136(s0)
80001d34:	85ee                	mv	a1,s11
80001d36:	84018513          	addi	a0,gp,-1984 # 90000040 <Arr_1_Glob>
80001d3a:	b16ff0ef          	jal	ra,80001050 <Proc_8>
80001d3e:	000d2503          	lw	a0,0(s10)
80001d42:	c88ff0ef          	jal	ra,800011ca <Proc_1>
80001d46:	0fffe717          	auipc	a4,0xfffe
80001d4a:	2d674703          	lbu	a4,726(a4) # 9000001c <Ch_2_Glob>
80001d4e:	04000793          	li	a5,64
80001d52:	46e7f863          	bleu	a4,a5,800021c2 <main+0x6d4>
80001d56:	04100b13          	li	s6,65
80001d5a:	4a8d                	li	s5,3
80001d5c:	a811                	j	80001d70 <main+0x282>
80001d5e:	0b05                	addi	s6,s6,1
80001d60:	0ffb7b13          	andi	s6,s6,255
80001d64:	0fffe797          	auipc	a5,0xfffe
80001d68:	2b87c783          	lbu	a5,696(a5) # 9000001c <Ch_2_Glob>
80001d6c:	0767ee63          	bltu	a5,s6,80001de8 <main+0x2fa>
80001d70:	04300593          	li	a1,67
80001d74:	855a                	mv	a0,s6
80001d76:	b20ff0ef          	jal	ra,80001096 <Func_1>
80001d7a:	f7c42783          	lw	a5,-132(s0)
80001d7e:	fef510e3          	bne	a0,a5,80001d5e <main+0x270>
80001d82:	f7c40593          	addi	a1,s0,-132
80001d86:	4501                	li	a0,0
80001d88:	b70ff0ef          	jal	ra,800010f8 <Proc_6>
80001d8c:	01e4c783          	lbu	a5,30(s1)
80001d90:	0004a303          	lw	t1,0(s1)
80001d94:	0044a883          	lw	a7,4(s1)
80001d98:	0084a803          	lw	a6,8(s1)
80001d9c:	44c8                	lw	a0,12(s1)
80001d9e:	488c                	lw	a1,16(s1)
80001da0:	48d0                	lw	a2,20(s1)
80001da2:	4c94                	lw	a3,24(s1)
80001da4:	01c4d703          	lhu	a4,28(s1)
80001da8:	faf40f23          	sb	a5,-66(s0)
80001dac:	0b05                	addi	s6,s6,1
80001dae:	0fffe797          	auipc	a5,0xfffe
80001db2:	2747ab23          	sw	s4,630(a5) # 90000024 <Int_Glob>
80001db6:	fa642023          	sw	t1,-96(s0)
80001dba:	fb142223          	sw	a7,-92(s0)
80001dbe:	fb042423          	sw	a6,-88(s0)
80001dc2:	faa42623          	sw	a0,-84(s0)
80001dc6:	fab42823          	sw	a1,-80(s0)
80001dca:	fac42a23          	sw	a2,-76(s0)
80001dce:	fad42c23          	sw	a3,-72(s0)
80001dd2:	fae41e23          	sh	a4,-68(s0)
80001dd6:	0ffb7b13          	andi	s6,s6,255
80001dda:	0fffe797          	auipc	a5,0xfffe
80001dde:	2427c783          	lbu	a5,578(a5) # 9000001c <Ch_2_Glob>
80001de2:	8ad2                	mv	s5,s4
80001de4:	f967f6e3          	bleu	s6,a5,80001d70 <main+0x282>
80001de8:	f7442783          	lw	a5,-140(s0)
80001dec:	f7842b83          	lw	s7,-136(s0)
80001df0:	0a05                	addi	s4,s4,1
80001df2:	02fa8ab3          	mul	s5,s5,a5
80001df6:	f7440513          	addi	a0,s0,-140
80001dfa:	037acb33          	div	s6,s5,s7
80001dfe:	f7642a23          	sw	s6,-140(s0)
80001e02:	b80ff0ef          	jal	ra,80001182 <Proc_2>
80001e06:	e99a16e3          	bne	s4,s9,80001c92 <main+0x1a4>
80001e0a:	b00027f3          	csrr	a5,mcycle
80001e0e:	4501                	li	a0,0
80001e10:	0fffe717          	auipc	a4,0xfffe
80001e14:	1ef72e23          	sw	a5,508(a4) # 9000000c <End_Time>
80001e18:	3295                	jal	8000177c <setStats>
80001e1a:	0fffe797          	auipc	a5,0xfffe
80001e1e:	1f278793          	addi	a5,a5,498 # 9000000c <End_Time>
80001e22:	0fffe717          	auipc	a4,0xfffe
80001e26:	1ee70713          	addi	a4,a4,494 # 90000010 <Begin_Time>
80001e2a:	4318                	lw	a4,0(a4)
80001e2c:	439c                	lw	a5,0(a5)
80001e2e:	8f99                	sub	a5,a5,a4
80001e30:	0fffe717          	auipc	a4,0xfffe
80001e34:	1cf72c23          	sw	a5,472(a4) # 90000008 <User_Time>
80001e38:	38f05763          	blez	a5,800021c6 <main+0x6d8>
80001e3c:	4785                	li	a5,1
80001e3e:	0fffe717          	auipc	a4,0xfffe
80001e42:	1cf72b23          	sw	a5,470(a4) # 90000014 <Done>
80001e46:	00001517          	auipc	a0,0x1
80001e4a:	00a50513          	addi	a0,a0,10 # 80002e50 <__umoddi3+0x4b8>
80001e4e:	b20ff0ef          	jal	ra,8000116e <debug_printf>
80001e52:	00001517          	auipc	a0,0x1
80001e56:	13e50513          	addi	a0,a0,318 # 80002f90 <__umoddi3+0x5f8>
80001e5a:	b14ff0ef          	jal	ra,8000116e <debug_printf>
80001e5e:	0fffe797          	auipc	a5,0xfffe
80001e62:	1c678793          	addi	a5,a5,454 # 90000024 <Int_Glob>
80001e66:	438c                	lw	a1,0(a5)
80001e68:	00001517          	auipc	a0,0x1
80001e6c:	02050513          	addi	a0,a0,32 # 80002e88 <__umoddi3+0x4f0>
80001e70:	0fffe497          	auipc	s1,0xfffe
80001e74:	1b848493          	addi	s1,s1,440 # 90000028 <Next_Ptr_Glob>
80001e78:	af6ff0ef          	jal	ra,8000116e <debug_printf>
80001e7c:	4595                	li	a1,5
80001e7e:	00001517          	auipc	a0,0x1
80001e82:	02650513          	addi	a0,a0,38 # 80002ea4 <__umoddi3+0x50c>
80001e86:	ae8ff0ef          	jal	ra,8000116e <debug_printf>
80001e8a:	0fffe797          	auipc	a5,0xfffe
80001e8e:	19678793          	addi	a5,a5,406 # 90000020 <Bool_Glob>
80001e92:	438c                	lw	a1,0(a5)
80001e94:	00001517          	auipc	a0,0x1
80001e98:	02c50513          	addi	a0,a0,44 # 80002ec0 <__umoddi3+0x528>
80001e9c:	417a8ab3          	sub	s5,s5,s7
80001ea0:	aceff0ef          	jal	ra,8000116e <debug_printf>
80001ea4:	4585                	li	a1,1
80001ea6:	00001517          	auipc	a0,0x1
80001eaa:	ffe50513          	addi	a0,a0,-2 # 80002ea4 <__umoddi3+0x50c>
80001eae:	ac0ff0ef          	jal	ra,8000116e <debug_printf>
80001eb2:	0fffe597          	auipc	a1,0xfffe
80001eb6:	16b5c583          	lbu	a1,363(a1) # 9000001d <Ch_1_Glob>
80001eba:	00001517          	auipc	a0,0x1
80001ebe:	02250513          	addi	a0,a0,34 # 80002edc <__umoddi3+0x544>
80001ec2:	aacff0ef          	jal	ra,8000116e <debug_printf>
80001ec6:	04100593          	li	a1,65
80001eca:	00001517          	auipc	a0,0x1
80001ece:	02e50513          	addi	a0,a0,46 # 80002ef8 <__umoddi3+0x560>
80001ed2:	a9cff0ef          	jal	ra,8000116e <debug_printf>
80001ed6:	0fffe597          	auipc	a1,0xfffe
80001eda:	1465c583          	lbu	a1,326(a1) # 9000001c <Ch_2_Glob>
80001ede:	00001517          	auipc	a0,0x1
80001ee2:	03650513          	addi	a0,a0,54 # 80002f14 <__umoddi3+0x57c>
80001ee6:	a88ff0ef          	jal	ra,8000116e <debug_printf>
80001eea:	04200593          	li	a1,66
80001eee:	00001517          	auipc	a0,0x1
80001ef2:	00a50513          	addi	a0,a0,10 # 80002ef8 <__umoddi3+0x560>
80001ef6:	a78ff0ef          	jal	ra,8000116e <debug_printf>
80001efa:	84018793          	addi	a5,gp,-1984 # 90000040 <Arr_1_Glob>
80001efe:	538c                	lw	a1,32(a5)
80001f00:	00001517          	auipc	a0,0x1
80001f04:	03050513          	addi	a0,a0,48 # 80002f30 <__umoddi3+0x598>
80001f08:	a66ff0ef          	jal	ra,8000116e <debug_printf>
80001f0c:	459d                	li	a1,7
80001f0e:	00001517          	auipc	a0,0x1
80001f12:	f9650513          	addi	a0,a0,-106 # 80002ea4 <__umoddi3+0x50c>
80001f16:	a58ff0ef          	jal	ra,8000116e <debug_printf>
80001f1a:	0fffe797          	auipc	a5,0xfffe
80001f1e:	1ee78793          	addi	a5,a5,494 # 90000108 <Arr_2_Glob>
80001f22:	65c7a583          	lw	a1,1628(a5)
80001f26:	00001517          	auipc	a0,0x1
80001f2a:	02650513          	addi	a0,a0,38 # 80002f4c <__umoddi3+0x5b4>
80001f2e:	a40ff0ef          	jal	ra,8000116e <debug_printf>
80001f32:	00001517          	auipc	a0,0x1
80001f36:	03650513          	addi	a0,a0,54 # 80002f68 <__umoddi3+0x5d0>
80001f3a:	a34ff0ef          	jal	ra,8000116e <debug_printf>
80001f3e:	00001517          	auipc	a0,0x1
80001f42:	05650513          	addi	a0,a0,86 # 80002f94 <__umoddi3+0x5fc>
80001f46:	a28ff0ef          	jal	ra,8000116e <debug_printf>
80001f4a:	000d2783          	lw	a5,0(s10)
80001f4e:	00001517          	auipc	a0,0x1
80001f52:	05250513          	addi	a0,a0,82 # 80002fa0 <__umoddi3+0x608>
80001f56:	438c                	lw	a1,0(a5)
80001f58:	a16ff0ef          	jal	ra,8000116e <debug_printf>
80001f5c:	00001517          	auipc	a0,0x1
80001f60:	06050513          	addi	a0,a0,96 # 80002fbc <__umoddi3+0x624>
80001f64:	a0aff0ef          	jal	ra,8000116e <debug_printf>
80001f68:	000d2783          	lw	a5,0(s10)
80001f6c:	00001517          	auipc	a0,0x1
80001f70:	08450513          	addi	a0,a0,132 # 80002ff0 <__umoddi3+0x658>
80001f74:	43cc                	lw	a1,4(a5)
80001f76:	9f8ff0ef          	jal	ra,8000116e <debug_printf>
80001f7a:	4581                	li	a1,0
80001f7c:	00001517          	auipc	a0,0x1
80001f80:	f2850513          	addi	a0,a0,-216 # 80002ea4 <__umoddi3+0x50c>
80001f84:	9eaff0ef          	jal	ra,8000116e <debug_printf>
80001f88:	000d2783          	lw	a5,0(s10)
80001f8c:	00001517          	auipc	a0,0x1
80001f90:	08050513          	addi	a0,a0,128 # 8000300c <__umoddi3+0x674>
80001f94:	478c                	lw	a1,8(a5)
80001f96:	9d8ff0ef          	jal	ra,8000116e <debug_printf>
80001f9a:	4589                	li	a1,2
80001f9c:	00001517          	auipc	a0,0x1
80001fa0:	f0850513          	addi	a0,a0,-248 # 80002ea4 <__umoddi3+0x50c>
80001fa4:	9caff0ef          	jal	ra,8000116e <debug_printf>
80001fa8:	000d2783          	lw	a5,0(s10)
80001fac:	00001517          	auipc	a0,0x1
80001fb0:	07c50513          	addi	a0,a0,124 # 80003028 <__umoddi3+0x690>
80001fb4:	47cc                	lw	a1,12(a5)
80001fb6:	9b8ff0ef          	jal	ra,8000116e <debug_printf>
80001fba:	45c5                	li	a1,17
80001fbc:	00001517          	auipc	a0,0x1
80001fc0:	ee850513          	addi	a0,a0,-280 # 80002ea4 <__umoddi3+0x50c>
80001fc4:	9aaff0ef          	jal	ra,8000116e <debug_printf>
80001fc8:	000d2583          	lw	a1,0(s10)
80001fcc:	00001517          	auipc	a0,0x1
80001fd0:	07850513          	addi	a0,a0,120 # 80003044 <__umoddi3+0x6ac>
80001fd4:	05c1                	addi	a1,a1,16
80001fd6:	998ff0ef          	jal	ra,8000116e <debug_printf>
80001fda:	00001517          	auipc	a0,0x1
80001fde:	08650513          	addi	a0,a0,134 # 80003060 <__umoddi3+0x6c8>
80001fe2:	98cff0ef          	jal	ra,8000116e <debug_printf>
80001fe6:	00001517          	auipc	a0,0x1
80001fea:	0b250513          	addi	a0,a0,178 # 80003098 <__umoddi3+0x700>
80001fee:	980ff0ef          	jal	ra,8000116e <debug_printf>
80001ff2:	409c                	lw	a5,0(s1)
80001ff4:	00001517          	auipc	a0,0x1
80001ff8:	fac50513          	addi	a0,a0,-84 # 80002fa0 <__umoddi3+0x608>
80001ffc:	438c                	lw	a1,0(a5)
80001ffe:	970ff0ef          	jal	ra,8000116e <debug_printf>
80002002:	00001517          	auipc	a0,0x1
80002006:	0aa50513          	addi	a0,a0,170 # 800030ac <__umoddi3+0x714>
8000200a:	964ff0ef          	jal	ra,8000116e <debug_printf>
8000200e:	409c                	lw	a5,0(s1)
80002010:	00001517          	auipc	a0,0x1
80002014:	fe050513          	addi	a0,a0,-32 # 80002ff0 <__umoddi3+0x658>
80002018:	43cc                	lw	a1,4(a5)
8000201a:	954ff0ef          	jal	ra,8000116e <debug_printf>
8000201e:	4581                	li	a1,0
80002020:	00001517          	auipc	a0,0x1
80002024:	e8450513          	addi	a0,a0,-380 # 80002ea4 <__umoddi3+0x50c>
80002028:	946ff0ef          	jal	ra,8000116e <debug_printf>
8000202c:	409c                	lw	a5,0(s1)
8000202e:	00001517          	auipc	a0,0x1
80002032:	fde50513          	addi	a0,a0,-34 # 8000300c <__umoddi3+0x674>
80002036:	478c                	lw	a1,8(a5)
80002038:	936ff0ef          	jal	ra,8000116e <debug_printf>
8000203c:	4585                	li	a1,1
8000203e:	00001517          	auipc	a0,0x1
80002042:	e6650513          	addi	a0,a0,-410 # 80002ea4 <__umoddi3+0x50c>
80002046:	928ff0ef          	jal	ra,8000116e <debug_printf>
8000204a:	409c                	lw	a5,0(s1)
8000204c:	00001517          	auipc	a0,0x1
80002050:	fdc50513          	addi	a0,a0,-36 # 80003028 <__umoddi3+0x690>
80002054:	47cc                	lw	a1,12(a5)
80002056:	918ff0ef          	jal	ra,8000116e <debug_printf>
8000205a:	45c9                	li	a1,18
8000205c:	00001517          	auipc	a0,0x1
80002060:	e4850513          	addi	a0,a0,-440 # 80002ea4 <__umoddi3+0x50c>
80002064:	90aff0ef          	jal	ra,8000116e <debug_printf>
80002068:	408c                	lw	a1,0(s1)
8000206a:	00001517          	auipc	a0,0x1
8000206e:	fda50513          	addi	a0,a0,-38 # 80003044 <__umoddi3+0x6ac>
80002072:	05c1                	addi	a1,a1,16
80002074:	8faff0ef          	jal	ra,8000116e <debug_printf>
80002078:	00001517          	auipc	a0,0x1
8000207c:	fe850513          	addi	a0,a0,-24 # 80003060 <__umoddi3+0x6c8>
80002080:	8eeff0ef          	jal	ra,8000116e <debug_printf>
80002084:	f7442583          	lw	a1,-140(s0)
80002088:	00001517          	auipc	a0,0x1
8000208c:	06450513          	addi	a0,a0,100 # 800030ec <__umoddi3+0x754>
80002090:	8deff0ef          	jal	ra,8000116e <debug_printf>
80002094:	4595                	li	a1,5
80002096:	00001517          	auipc	a0,0x1
8000209a:	e0e50513          	addi	a0,a0,-498 # 80002ea4 <__umoddi3+0x50c>
8000209e:	8d0ff0ef          	jal	ra,8000116e <debug_printf>
800020a2:	003a9793          	slli	a5,s5,0x3
800020a6:	41578ab3          	sub	s5,a5,s5
800020aa:	416a85b3          	sub	a1,s5,s6
800020ae:	00001517          	auipc	a0,0x1
800020b2:	05a50513          	addi	a0,a0,90 # 80003108 <__umoddi3+0x770>
800020b6:	8b8ff0ef          	jal	ra,8000116e <debug_printf>
800020ba:	45b5                	li	a1,13
800020bc:	00001517          	auipc	a0,0x1
800020c0:	de850513          	addi	a0,a0,-536 # 80002ea4 <__umoddi3+0x50c>
800020c4:	8aaff0ef          	jal	ra,8000116e <debug_printf>
800020c8:	f7842583          	lw	a1,-136(s0)
800020cc:	00001517          	auipc	a0,0x1
800020d0:	05850513          	addi	a0,a0,88 # 80003124 <__umoddi3+0x78c>
800020d4:	89aff0ef          	jal	ra,8000116e <debug_printf>
800020d8:	459d                	li	a1,7
800020da:	00001517          	auipc	a0,0x1
800020de:	dca50513          	addi	a0,a0,-566 # 80002ea4 <__umoddi3+0x50c>
800020e2:	88cff0ef          	jal	ra,8000116e <debug_printf>
800020e6:	f7c42583          	lw	a1,-132(s0)
800020ea:	00001517          	auipc	a0,0x1
800020ee:	05650513          	addi	a0,a0,86 # 80003140 <__umoddi3+0x7a8>
800020f2:	87cff0ef          	jal	ra,8000116e <debug_printf>
800020f6:	00001517          	auipc	a0,0x1
800020fa:	dae50513          	addi	a0,a0,-594 # 80002ea4 <__umoddi3+0x50c>
800020fe:	4585                	li	a1,1
80002100:	86eff0ef          	jal	ra,8000116e <debug_printf>
80002104:	f8040593          	addi	a1,s0,-128
80002108:	00001517          	auipc	a0,0x1
8000210c:	05450513          	addi	a0,a0,84 # 8000315c <__umoddi3+0x7c4>
80002110:	85eff0ef          	jal	ra,8000116e <debug_printf>
80002114:	00001517          	auipc	a0,0x1
80002118:	06450513          	addi	a0,a0,100 # 80003178 <__umoddi3+0x7e0>
8000211c:	852ff0ef          	jal	ra,8000116e <debug_printf>
80002120:	fa040593          	addi	a1,s0,-96
80002124:	00001517          	auipc	a0,0x1
80002128:	08c50513          	addi	a0,a0,140 # 800031b0 <__umoddi3+0x818>
8000212c:	842ff0ef          	jal	ra,8000116e <debug_printf>
80002130:	00001517          	auipc	a0,0x1
80002134:	09c50513          	addi	a0,a0,156 # 800031cc <__umoddi3+0x834>
80002138:	836ff0ef          	jal	ra,8000116e <debug_printf>
8000213c:	00001517          	auipc	a0,0x1
80002140:	e5450513          	addi	a0,a0,-428 # 80002f90 <__umoddi3+0x5f8>
80002144:	82aff0ef          	jal	ra,8000116e <debug_printf>
80002148:	f6c42603          	lw	a2,-148(s0)
8000214c:	000f4737          	lui	a4,0xf4
80002150:	24070713          	addi	a4,a4,576 # f4240 <_tbss_end+0xf41fc>
80002154:	02e60733          	mul	a4,a2,a4
80002158:	0fffe797          	auipc	a5,0xfffe
8000215c:	eb078793          	addi	a5,a5,-336 # 90000008 <User_Time>
80002160:	4394                	lw	a3,0(a5)
80002162:	00001517          	auipc	a0,0x1
80002166:	0a250513          	addi	a0,a0,162 # 80003204 <__umoddi3+0x86c>
8000216a:	02c6c7b3          	div	a5,a3,a2
8000216e:	02d74733          	div	a4,a4,a3
80002172:	85be                	mv	a1,a5
80002174:	0fffe697          	auipc	a3,0xfffe
80002178:	e8f6a823          	sw	a5,-368(a3) # 90000004 <Microseconds>
8000217c:	0fffe797          	auipc	a5,0xfffe
80002180:	e8e7a223          	sw	a4,-380(a5) # 90000000 <Dhrystones_Per_Second>
80002184:	efaff0ef          	jal	ra,8000187e <printf>
80002188:	0fffe797          	auipc	a5,0xfffe
8000218c:	e7878793          	addi	a5,a5,-392 # 90000000 <Dhrystones_Per_Second>
80002190:	438c                	lw	a1,0(a5)
80002192:	00001517          	auipc	a0,0x1
80002196:	0a650513          	addi	a0,a0,166 # 80003238 <__umoddi3+0x8a0>
8000219a:	ee4ff0ef          	jal	ra,8000187e <printf>
8000219e:	f6040113          	addi	sp,s0,-160
800021a2:	40fa                	lw	ra,156(sp)
800021a4:	4501                	li	a0,0
800021a6:	446a                	lw	s0,152(sp)
800021a8:	44da                	lw	s1,148(sp)
800021aa:	494a                	lw	s2,144(sp)
800021ac:	49ba                	lw	s3,140(sp)
800021ae:	4a2a                	lw	s4,136(sp)
800021b0:	4a9a                	lw	s5,132(sp)
800021b2:	4b0a                	lw	s6,128(sp)
800021b4:	5bf6                	lw	s7,124(sp)
800021b6:	5c66                	lw	s8,120(sp)
800021b8:	5cd6                	lw	s9,116(sp)
800021ba:	5d46                	lw	s10,112(sp)
800021bc:	5db6                	lw	s11,108(sp)
800021be:	610d                	addi	sp,sp,160
800021c0:	8082                	ret
800021c2:	4a8d                	li	s5,3
800021c4:	b115                	j	80001de8 <main+0x2fa>
800021c6:	00001517          	auipc	a0,0x1
800021ca:	c5250513          	addi	a0,a0,-942 # 80002e18 <__umoddi3+0x480>
800021ce:	eb0ff0ef          	jal	ra,8000187e <printf>
800021d2:	f6c42703          	lw	a4,-148(s0)
800021d6:	00001517          	auipc	a0,0x1
800021da:	dba50513          	addi	a0,a0,-582 # 80002f90 <__umoddi3+0x5f8>
800021de:	00271793          	slli	a5,a4,0x2
800021e2:	97ba                	add	a5,a5,a4
800021e4:	0786                	slli	a5,a5,0x1
800021e6:	f6f42623          	sw	a5,-148(s0)
800021ea:	e94ff0ef          	jal	ra,8000187e <printf>
800021ee:	0fffe797          	auipc	a5,0xfffe
800021f2:	e2678793          	addi	a5,a5,-474 # 90000014 <Done>
800021f6:	439c                	lw	a5,0(a5)
800021f8:	a60787e3          	beqz	a5,80001c66 <main+0x178>
800021fc:	b1a9                	j	80001e46 <main+0x358>
800021fe:	00001517          	auipc	a0,0x1
80002202:	ba650513          	addi	a0,a0,-1114 # 80002da4 <__umoddi3+0x40c>
80002206:	f69fe0ef          	jal	ra,8000116e <debug_printf>
8000220a:	b411                	j	80001c0e <main+0x120>
8000220c:	1141                	addi	sp,sp,-16
8000220e:	00001517          	auipc	a0,0x1
80002212:	0da50513          	addi	a0,a0,218 # 800032e8 <__umoddi3+0x950>
80002216:	c606                	sw	ra,12(sp)
80002218:	df8ff0ef          	jal	ra,80001810 <printstr>
8000221c:	40b2                	lw	ra,12(sp)
8000221e:	557d                	li	a0,-1
80002220:	0141                	addi	sp,sp,16
80002222:	8082                	ret

Disassembly of section .text.__moddi3:

80002224 <__moddi3>:
80002224:	4801                	li	a6,0
80002226:	1205c163          	bltz	a1,80002348 <__moddi3+0x124>
8000222a:	0006d963          	bgez	a3,8000223c <__moddi3+0x18>
8000222e:	40c00633          	neg	a2,a2
80002232:	00c037b3          	snez	a5,a2
80002236:	40d006b3          	neg	a3,a3
8000223a:	8e9d                	sub	a3,a3,a5
8000223c:	87b6                	mv	a5,a3
8000223e:	88b2                	mv	a7,a2
80002240:	8e2a                	mv	t3,a0
80002242:	8eae                	mv	t4,a1
80002244:	eacd                	bnez	a3,800022f6 <__moddi3+0xd2>
80002246:	10c5fa63          	bleu	a2,a1,8000235a <__moddi3+0x136>
8000224a:	6741                	lui	a4,0x10
8000224c:	1ce66063          	bltu	a2,a4,8000240c <__moddi3+0x1e8>
80002250:	010007b7          	lui	a5,0x1000
80002254:	36f66f63          	bltu	a2,a5,800025d2 <__moddi3+0x3ae>
80002258:	01865693          	srli	a3,a2,0x18
8000225c:	47e1                	li	a5,24
8000225e:	00001717          	auipc	a4,0x1
80002262:	25670713          	addi	a4,a4,598 # 800034b4 <__clz_tab>
80002266:	9736                	add	a4,a4,a3
80002268:	00074683          	lbu	a3,0(a4)
8000226c:	02000313          	li	t1,32
80002270:	97b6                	add	a5,a5,a3
80002272:	40f30333          	sub	t1,t1,a5
80002276:	00030c63          	beqz	t1,8000228e <__moddi3+0x6a>
8000227a:	006595b3          	sll	a1,a1,t1
8000227e:	00f557b3          	srl	a5,a0,a5
80002282:	006618b3          	sll	a7,a2,t1
80002286:	00b7eeb3          	or	t4,a5,a1
8000228a:	00651e33          	sll	t3,a0,t1
8000228e:	0108d613          	srli	a2,a7,0x10
80002292:	02ced7b3          	divu	a5,t4,a2
80002296:	01089513          	slli	a0,a7,0x10
8000229a:	8141                	srli	a0,a0,0x10
8000229c:	010e5713          	srli	a4,t3,0x10
800022a0:	02cef6b3          	remu	a3,t4,a2
800022a4:	02f507b3          	mul	a5,a0,a5
800022a8:	06c2                	slli	a3,a3,0x10
800022aa:	8f55                	or	a4,a4,a3
800022ac:	00f77863          	bleu	a5,a4,800022bc <__moddi3+0x98>
800022b0:	9746                	add	a4,a4,a7
800022b2:	01176563          	bltu	a4,a7,800022bc <__moddi3+0x98>
800022b6:	00f77363          	bleu	a5,a4,800022bc <__moddi3+0x98>
800022ba:	9746                	add	a4,a4,a7
800022bc:	8f1d                	sub	a4,a4,a5
800022be:	02c756b3          	divu	a3,a4,a2
800022c2:	010e1793          	slli	a5,t3,0x10
800022c6:	83c1                	srli	a5,a5,0x10
800022c8:	02c77733          	remu	a4,a4,a2
800022cc:	02d50533          	mul	a0,a0,a3
800022d0:	0742                	slli	a4,a4,0x10
800022d2:	8fd9                	or	a5,a5,a4
800022d4:	10a7e763          	bltu	a5,a0,800023e2 <__moddi3+0x1be>
800022d8:	40a78533          	sub	a0,a5,a0
800022dc:	00655533          	srl	a0,a0,t1
800022e0:	4581                	li	a1,0
800022e2:	00080963          	beqz	a6,800022f4 <__moddi3+0xd0>
800022e6:	40a00533          	neg	a0,a0
800022ea:	00a037b3          	snez	a5,a0
800022ee:	40b005b3          	neg	a1,a1
800022f2:	8d9d                	sub	a1,a1,a5
800022f4:	8082                	ret
800022f6:	fed5e6e3          	bltu	a1,a3,800022e2 <__moddi3+0xbe>
800022fa:	67c1                	lui	a5,0x10
800022fc:	12f6e163          	bltu	a3,a5,8000241e <__moddi3+0x1fa>
80002300:	010007b7          	lui	a5,0x1000
80002304:	2cf6e363          	bltu	a3,a5,800025ca <__moddi3+0x3a6>
80002308:	0186d893          	srli	a7,a3,0x18
8000230c:	4761                	li	a4,24
8000230e:	00001797          	auipc	a5,0x1
80002312:	1a678793          	addi	a5,a5,422 # 800034b4 <__clz_tab>
80002316:	97c6                	add	a5,a5,a7
80002318:	0007cf03          	lbu	t5,0(a5)
8000231c:	02000e13          	li	t3,32
80002320:	9f3a                	add	t5,t5,a4
80002322:	41ee0e33          	sub	t3,t3,t5
80002326:	180e1063          	bnez	t3,800024a6 <__moddi3+0x282>
8000232a:	00b6e563          	bltu	a3,a1,80002334 <__moddi3+0x110>
8000232e:	88aa                	mv	a7,a0
80002330:	00c56963          	bltu	a0,a2,80002342 <__moddi3+0x11e>
80002334:	40c508b3          	sub	a7,a0,a2
80002338:	8d95                	sub	a1,a1,a3
8000233a:	011536b3          	sltu	a3,a0,a7
8000233e:	40d58eb3          	sub	t4,a1,a3
80002342:	8546                	mv	a0,a7
80002344:	85f6                	mv	a1,t4
80002346:	bf71                	j	800022e2 <__moddi3+0xbe>
80002348:	40a00533          	neg	a0,a0
8000234c:	00a037b3          	snez	a5,a0
80002350:	40b005b3          	neg	a1,a1
80002354:	8d9d                	sub	a1,a1,a5
80002356:	587d                	li	a6,-1
80002358:	bdc9                	j	8000222a <__moddi3+0x6>
8000235a:	e601                	bnez	a2,80002362 <__moddi3+0x13e>
8000235c:	4885                	li	a7,1
8000235e:	02d8d8b3          	divu	a7,a7,a3
80002362:	6741                	lui	a4,0x10
80002364:	08e8eb63          	bltu	a7,a4,800023fa <__moddi3+0x1d6>
80002368:	010007b7          	lui	a5,0x1000
8000236c:	24f8eb63          	bltu	a7,a5,800025c2 <__moddi3+0x39e>
80002370:	0188d693          	srli	a3,a7,0x18
80002374:	47e1                	li	a5,24
80002376:	00001717          	auipc	a4,0x1
8000237a:	13e70713          	addi	a4,a4,318 # 800034b4 <__clz_tab>
8000237e:	9736                	add	a4,a4,a3
80002380:	00074703          	lbu	a4,0(a4)
80002384:	02000313          	li	t1,32
80002388:	97ba                	add	a5,a5,a4
8000238a:	40f30333          	sub	t1,t1,a5
8000238e:	0a031063          	bnez	t1,8000242e <__moddi3+0x20a>
80002392:	01089e93          	slli	t4,a7,0x10
80002396:	411585b3          	sub	a1,a1,a7
8000239a:	0108d613          	srli	a2,a7,0x10
8000239e:	010ede93          	srli	t4,t4,0x10
800023a2:	010e5713          	srli	a4,t3,0x10
800023a6:	02c5d6b3          	divu	a3,a1,a2
800023aa:	02c5f5b3          	remu	a1,a1,a2
800023ae:	03d686b3          	mul	a3,a3,t4
800023b2:	05c2                	slli	a1,a1,0x10
800023b4:	8f4d                	or	a4,a4,a1
800023b6:	00d77763          	bleu	a3,a4,800023c4 <__moddi3+0x1a0>
800023ba:	9746                	add	a4,a4,a7
800023bc:	01176463          	bltu	a4,a7,800023c4 <__moddi3+0x1a0>
800023c0:	22d76463          	bltu	a4,a3,800025e8 <__moddi3+0x3c4>
800023c4:	8f15                	sub	a4,a4,a3
800023c6:	02c75533          	divu	a0,a4,a2
800023ca:	0e42                	slli	t3,t3,0x10
800023cc:	010e5e13          	srli	t3,t3,0x10
800023d0:	02c77733          	remu	a4,a4,a2
800023d4:	03d50533          	mul	a0,a0,t4
800023d8:	0742                	slli	a4,a4,0x10
800023da:	01c767b3          	or	a5,a4,t3
800023de:	00a7f863          	bleu	a0,a5,800023ee <__moddi3+0x1ca>
800023e2:	97c6                	add	a5,a5,a7
800023e4:	0117e563          	bltu	a5,a7,800023ee <__moddi3+0x1ca>
800023e8:	00a7f363          	bleu	a0,a5,800023ee <__moddi3+0x1ca>
800023ec:	97c6                	add	a5,a5,a7
800023ee:	40a78533          	sub	a0,a5,a0
800023f2:	00655533          	srl	a0,a0,t1
800023f6:	4581                	li	a1,0
800023f8:	b5ed                	j	800022e2 <__moddi3+0xbe>
800023fa:	0ff00713          	li	a4,255
800023fe:	86c6                	mv	a3,a7
80002400:	f7177be3          	bleu	a7,a4,80002376 <__moddi3+0x152>
80002404:	0088d693          	srli	a3,a7,0x8
80002408:	47a1                	li	a5,8
8000240a:	b7b5                	j	80002376 <__moddi3+0x152>
8000240c:	0ff00713          	li	a4,255
80002410:	86b2                	mv	a3,a2
80002412:	e4c776e3          	bleu	a2,a4,8000225e <__moddi3+0x3a>
80002416:	00865693          	srli	a3,a2,0x8
8000241a:	47a1                	li	a5,8
8000241c:	b589                	j	8000225e <__moddi3+0x3a>
8000241e:	0ff00793          	li	a5,255
80002422:	1ad7fc63          	bleu	a3,a5,800025da <__moddi3+0x3b6>
80002426:	0086d893          	srli	a7,a3,0x8
8000242a:	4721                	li	a4,8
8000242c:	b5cd                	j	8000230e <__moddi3+0xea>
8000242e:	006898b3          	sll	a7,a7,t1
80002432:	00f5d733          	srl	a4,a1,a5
80002436:	0108d613          	srli	a2,a7,0x10
8000243a:	02c756b3          	divu	a3,a4,a2
8000243e:	01089e93          	slli	t4,a7,0x10
80002442:	00f557b3          	srl	a5,a0,a5
80002446:	010ede93          	srli	t4,t4,0x10
8000244a:	006595b3          	sll	a1,a1,t1
8000244e:	8ddd                	or	a1,a1,a5
80002450:	0105df13          	srli	t5,a1,0x10
80002454:	00651e33          	sll	t3,a0,t1
80002458:	02c77733          	remu	a4,a4,a2
8000245c:	02de87b3          	mul	a5,t4,a3
80002460:	01071693          	slli	a3,a4,0x10
80002464:	01e6e6b3          	or	a3,a3,t5
80002468:	00f6f863          	bleu	a5,a3,80002478 <__moddi3+0x254>
8000246c:	96c6                	add	a3,a3,a7
8000246e:	0116e563          	bltu	a3,a7,80002478 <__moddi3+0x254>
80002472:	00f6f363          	bleu	a5,a3,80002478 <__moddi3+0x254>
80002476:	96c6                	add	a3,a3,a7
80002478:	8e9d                	sub	a3,a3,a5
8000247a:	02c6d733          	divu	a4,a3,a2
8000247e:	01059793          	slli	a5,a1,0x10
80002482:	83c1                	srli	a5,a5,0x10
80002484:	02c6f6b3          	remu	a3,a3,a2
80002488:	02ee8733          	mul	a4,t4,a4
8000248c:	01069593          	slli	a1,a3,0x10
80002490:	8ddd                	or	a1,a1,a5
80002492:	00e5f863          	bleu	a4,a1,800024a2 <__moddi3+0x27e>
80002496:	95c6                	add	a1,a1,a7
80002498:	0115e563          	bltu	a1,a7,800024a2 <__moddi3+0x27e>
8000249c:	00e5f363          	bleu	a4,a1,800024a2 <__moddi3+0x27e>
800024a0:	95c6                	add	a1,a1,a7
800024a2:	8d99                	sub	a1,a1,a4
800024a4:	bdfd                	j	800023a2 <__moddi3+0x17e>
800024a6:	01e65333          	srl	t1,a2,t5
800024aa:	01c696b3          	sll	a3,a3,t3
800024ae:	00d366b3          	or	a3,t1,a3
800024b2:	01e5d8b3          	srl	a7,a1,t5
800024b6:	0106d713          	srli	a4,a3,0x10
800024ba:	02e8d333          	divu	t1,a7,a4
800024be:	01069f93          	slli	t6,a3,0x10
800024c2:	010fdf93          	srli	t6,t6,0x10
800024c6:	01e557b3          	srl	a5,a0,t5
800024ca:	01c595b3          	sll	a1,a1,t3
800024ce:	8ddd                	or	a1,a1,a5
800024d0:	0105d293          	srli	t0,a1,0x10
800024d4:	01c617b3          	sll	a5,a2,t3
800024d8:	01c51533          	sll	a0,a0,t3
800024dc:	02e8f8b3          	remu	a7,a7,a4
800024e0:	026f8eb3          	mul	t4,t6,t1
800024e4:	08c2                	slli	a7,a7,0x10
800024e6:	0058e633          	or	a2,a7,t0
800024ea:	01d67b63          	bleu	t4,a2,80002500 <__moddi3+0x2dc>
800024ee:	9636                	add	a2,a2,a3
800024f0:	fff30893          	addi	a7,t1,-1
800024f4:	0ed66863          	bltu	a2,a3,800025e4 <__moddi3+0x3c0>
800024f8:	0fd67663          	bleu	t4,a2,800025e4 <__moddi3+0x3c0>
800024fc:	1379                	addi	t1,t1,-2
800024fe:	9636                	add	a2,a2,a3
80002500:	41d60633          	sub	a2,a2,t4
80002504:	02e658b3          	divu	a7,a2,a4
80002508:	05c2                	slli	a1,a1,0x10
8000250a:	81c1                	srli	a1,a1,0x10
8000250c:	02e67633          	remu	a2,a2,a4
80002510:	031f8fb3          	mul	t6,t6,a7
80002514:	01061713          	slli	a4,a2,0x10
80002518:	8f4d                	or	a4,a4,a1
8000251a:	01f77b63          	bleu	t6,a4,80002530 <__moddi3+0x30c>
8000251e:	9736                	add	a4,a4,a3
80002520:	fff88613          	addi	a2,a7,-1
80002524:	0ad76e63          	bltu	a4,a3,800025e0 <__moddi3+0x3bc>
80002528:	0bf77c63          	bleu	t6,a4,800025e0 <__moddi3+0x3bc>
8000252c:	18f9                	addi	a7,a7,-2
8000252e:	9736                	add	a4,a4,a3
80002530:	0342                	slli	t1,t1,0x10
80002532:	63c1                	lui	t2,0x10
80002534:	01136333          	or	t1,t1,a7
80002538:	fff38893          	addi	a7,t2,-1 # ffff <_tbss_end+0xffbb>
8000253c:	01137eb3          	and	t4,t1,a7
80002540:	0107d593          	srli	a1,a5,0x10
80002544:	01035313          	srli	t1,t1,0x10
80002548:	0117f8b3          	and	a7,a5,a7
8000254c:	031e82b3          	mul	t0,t4,a7
80002550:	41f70733          	sub	a4,a4,t6
80002554:	031308b3          	mul	a7,t1,a7
80002558:	0102d613          	srli	a2,t0,0x10
8000255c:	02be8eb3          	mul	t4,t4,a1
80002560:	9ec6                	add	t4,t4,a7
80002562:	9676                	add	a2,a2,t4
80002564:	02b30333          	mul	t1,t1,a1
80002568:	01167363          	bleu	a7,a2,8000256e <__moddi3+0x34a>
8000256c:	931e                	add	t1,t1,t2
8000256e:	68c1                	lui	a7,0x10
80002570:	18fd                	addi	a7,a7,-1
80002572:	01065593          	srli	a1,a2,0x10
80002576:	01167633          	and	a2,a2,a7
8000257a:	0642                	slli	a2,a2,0x10
8000257c:	0112f2b3          	and	t0,t0,a7
80002580:	932e                	add	t1,t1,a1
80002582:	9616                	add	a2,a2,t0
80002584:	00676863          	bltu	a4,t1,80002594 <__moddi3+0x370>
80002588:	06670263          	beq	a4,t1,800025ec <__moddi3+0x3c8>
8000258c:	406705b3          	sub	a1,a4,t1
80002590:	87b2                	mv	a5,a2
80002592:	a811                	j	800025a6 <__moddi3+0x382>
80002594:	40f607b3          	sub	a5,a2,a5
80002598:	40d305b3          	sub	a1,t1,a3
8000259c:	00f63633          	sltu	a2,a2,a5
800025a0:	8d91                	sub	a1,a1,a2
800025a2:	40b705b3          	sub	a1,a4,a1
800025a6:	40f507b3          	sub	a5,a0,a5
800025aa:	00f53533          	sltu	a0,a0,a5
800025ae:	8d89                	sub	a1,a1,a0
800025b0:	01e59f33          	sll	t5,a1,t5
800025b4:	01c7d533          	srl	a0,a5,t3
800025b8:	00af6533          	or	a0,t5,a0
800025bc:	01c5d5b3          	srl	a1,a1,t3
800025c0:	b30d                	j	800022e2 <__moddi3+0xbe>
800025c2:	0108d693          	srli	a3,a7,0x10
800025c6:	47c1                	li	a5,16
800025c8:	b37d                	j	80002376 <__moddi3+0x152>
800025ca:	0106d893          	srli	a7,a3,0x10
800025ce:	4741                	li	a4,16
800025d0:	bb3d                	j	8000230e <__moddi3+0xea>
800025d2:	01065693          	srli	a3,a2,0x10
800025d6:	47c1                	li	a5,16
800025d8:	b159                	j	8000225e <__moddi3+0x3a>
800025da:	88b6                	mv	a7,a3
800025dc:	4701                	li	a4,0
800025de:	bb05                	j	8000230e <__moddi3+0xea>
800025e0:	88b2                	mv	a7,a2
800025e2:	b7b9                	j	80002530 <__moddi3+0x30c>
800025e4:	8346                	mv	t1,a7
800025e6:	bf29                	j	80002500 <__moddi3+0x2dc>
800025e8:	9746                	add	a4,a4,a7
800025ea:	bbe9                	j	800023c4 <__moddi3+0x1a0>
800025ec:	fac564e3          	bltu	a0,a2,80002594 <__moddi3+0x370>
800025f0:	87b2                	mv	a5,a2
800025f2:	4581                	li	a1,0
800025f4:	bf4d                	j	800025a6 <__moddi3+0x382>

Disassembly of section .text.__udivdi3:

800025f6 <__udivdi3>:
800025f6:	87b6                	mv	a5,a3
800025f8:	88b2                	mv	a7,a2
800025fa:	832a                	mv	t1,a0
800025fc:	882e                	mv	a6,a1
800025fe:	eacd                	bnez	a3,800026b0 <__udivdi3+0xba>
80002600:	0ec5fa63          	bleu	a2,a1,800026f4 <__udivdi3+0xfe>
80002604:	6741                	lui	a4,0x10
80002606:	1ae66e63          	bltu	a2,a4,800027c2 <__udivdi3+0x1cc>
8000260a:	010007b7          	lui	a5,0x1000
8000260e:	34f66a63          	bltu	a2,a5,80002962 <__udivdi3+0x36c>
80002612:	01865693          	srli	a3,a2,0x18
80002616:	47e1                	li	a5,24
80002618:	00001717          	auipc	a4,0x1
8000261c:	e9c70713          	addi	a4,a4,-356 # 800034b4 <__clz_tab>
80002620:	9736                	add	a4,a4,a3
80002622:	00074703          	lbu	a4,0(a4)
80002626:	97ba                	add	a5,a5,a4
80002628:	02000713          	li	a4,32
8000262c:	8f1d                	sub	a4,a4,a5
8000262e:	cb19                	beqz	a4,80002644 <__udivdi3+0x4e>
80002630:	00e59833          	sll	a6,a1,a4
80002634:	00f557b3          	srl	a5,a0,a5
80002638:	00e618b3          	sll	a7,a2,a4
8000263c:	0107e833          	or	a6,a5,a6
80002640:	00e51333          	sll	t1,a0,a4
80002644:	0108d613          	srli	a2,a7,0x10
80002648:	02c85533          	divu	a0,a6,a2
8000264c:	01089693          	slli	a3,a7,0x10
80002650:	82c1                	srli	a3,a3,0x10
80002652:	01035793          	srli	a5,t1,0x10
80002656:	02c87733          	remu	a4,a6,a2
8000265a:	02a685b3          	mul	a1,a3,a0
8000265e:	0742                	slli	a4,a4,0x10
80002660:	00f76833          	or	a6,a4,a5
80002664:	00b87a63          	bleu	a1,a6,80002678 <__udivdi3+0x82>
80002668:	9846                	add	a6,a6,a7
8000266a:	fff50793          	addi	a5,a0,-1
8000266e:	01186463          	bltu	a6,a7,80002676 <__udivdi3+0x80>
80002672:	30b86d63          	bltu	a6,a1,8000298c <__udivdi3+0x396>
80002676:	853e                	mv	a0,a5
80002678:	40b80833          	sub	a6,a6,a1
8000267c:	02c85733          	divu	a4,a6,a2
80002680:	0342                	slli	t1,t1,0x10
80002682:	01035313          	srli	t1,t1,0x10
80002686:	02c87833          	remu	a6,a6,a2
8000268a:	02e686b3          	mul	a3,a3,a4
8000268e:	0842                	slli	a6,a6,0x10
80002690:	00686833          	or	a6,a6,t1
80002694:	00d87a63          	bleu	a3,a6,800026a8 <__udivdi3+0xb2>
80002698:	9846                	add	a6,a6,a7
8000269a:	fff70793          	addi	a5,a4,-1
8000269e:	13186b63          	bltu	a6,a7,800027d4 <__udivdi3+0x1de>
800026a2:	1779                	addi	a4,a4,-2
800026a4:	12d87863          	bleu	a3,a6,800027d4 <__udivdi3+0x1de>
800026a8:	0542                	slli	a0,a0,0x10
800026aa:	8d59                	or	a0,a0,a4
800026ac:	4581                	li	a1,0
800026ae:	8082                	ret
800026b0:	0ed5e563          	bltu	a1,a3,8000279a <__udivdi3+0x1a4>
800026b4:	67c1                	lui	a5,0x10
800026b6:	0ef6e563          	bltu	a3,a5,800027a0 <__udivdi3+0x1aa>
800026ba:	010007b7          	lui	a5,0x1000
800026be:	28f6e763          	bltu	a3,a5,8000294c <__udivdi3+0x356>
800026c2:	0186d713          	srli	a4,a3,0x18
800026c6:	4861                	li	a6,24
800026c8:	00001797          	auipc	a5,0x1
800026cc:	dec78793          	addi	a5,a5,-532 # 800034b4 <__clz_tab>
800026d0:	97ba                	add	a5,a5,a4
800026d2:	0007c703          	lbu	a4,0(a5)
800026d6:	02000793          	li	a5,32
800026da:	9742                	add	a4,a4,a6
800026dc:	40e78333          	sub	t1,a5,a4
800026e0:	0e031e63          	bnez	t1,800027dc <__udivdi3+0x1e6>
800026e4:	28b6e363          	bltu	a3,a1,8000296a <__udivdi3+0x374>
800026e8:	00c53533          	sltu	a0,a0,a2
800026ec:	00154513          	xori	a0,a0,1
800026f0:	4581                	li	a1,0
800026f2:	8082                	ret
800026f4:	e601                	bnez	a2,800026fc <__udivdi3+0x106>
800026f6:	4705                	li	a4,1
800026f8:	02c758b3          	divu	a7,a4,a2
800026fc:	6741                	lui	a4,0x10
800026fe:	0ae8e963          	bltu	a7,a4,800027b0 <__udivdi3+0x1ba>
80002702:	010007b7          	lui	a5,0x1000
80002706:	24f8ea63          	bltu	a7,a5,8000295a <__udivdi3+0x364>
8000270a:	0188d693          	srli	a3,a7,0x18
8000270e:	47e1                	li	a5,24
80002710:	00001717          	auipc	a4,0x1
80002714:	da470713          	addi	a4,a4,-604 # 800034b4 <__clz_tab>
80002718:	9736                	add	a4,a4,a3
8000271a:	00074683          	lbu	a3,0(a4)
8000271e:	02000f93          	li	t6,32
80002722:	96be                	add	a3,a3,a5
80002724:	40df8fb3          	sub	t6,t6,a3
80002728:	160f9e63          	bnez	t6,800028a4 <__udivdi3+0x2ae>
8000272c:	01089e93          	slli	t4,a7,0x10
80002730:	41158733          	sub	a4,a1,a7
80002734:	0108df13          	srli	t5,a7,0x10
80002738:	010ede93          	srli	t4,t4,0x10
8000273c:	4585                	li	a1,1
8000273e:	01035793          	srli	a5,t1,0x10
80002742:	03e75533          	divu	a0,a4,t5
80002746:	03e77733          	remu	a4,a4,t5
8000274a:	03d506b3          	mul	a3,a0,t4
8000274e:	0742                	slli	a4,a4,0x10
80002750:	8fd9                	or	a5,a5,a4
80002752:	00d7fa63          	bleu	a3,a5,80002766 <__udivdi3+0x170>
80002756:	97c6                	add	a5,a5,a7
80002758:	fff50713          	addi	a4,a0,-1
8000275c:	0117e463          	bltu	a5,a7,80002764 <__udivdi3+0x16e>
80002760:	22d7e963          	bltu	a5,a3,80002992 <__udivdi3+0x39c>
80002764:	853a                	mv	a0,a4
80002766:	8f95                	sub	a5,a5,a3
80002768:	03e7d633          	divu	a2,a5,t5
8000276c:	0342                	slli	t1,t1,0x10
8000276e:	01035313          	srli	t1,t1,0x10
80002772:	03e7f7b3          	remu	a5,a5,t5
80002776:	03d60eb3          	mul	t4,a2,t4
8000277a:	07c2                	slli	a5,a5,0x10
8000277c:	0067e7b3          	or	a5,a5,t1
80002780:	01d7fa63          	bleu	t4,a5,80002794 <__udivdi3+0x19e>
80002784:	97c6                	add	a5,a5,a7
80002786:	fff60713          	addi	a4,a2,-1
8000278a:	0517e763          	bltu	a5,a7,800027d8 <__udivdi3+0x1e2>
8000278e:	1679                	addi	a2,a2,-2
80002790:	05d7f463          	bleu	t4,a5,800027d8 <__udivdi3+0x1e2>
80002794:	0542                	slli	a0,a0,0x10
80002796:	8d51                	or	a0,a0,a2
80002798:	8082                	ret
8000279a:	4581                	li	a1,0
8000279c:	4501                	li	a0,0
8000279e:	8082                	ret
800027a0:	0ff00793          	li	a5,255
800027a4:	1ad7f863          	bleu	a3,a5,80002954 <__udivdi3+0x35e>
800027a8:	0086d713          	srli	a4,a3,0x8
800027ac:	4821                	li	a6,8
800027ae:	bf29                	j	800026c8 <__udivdi3+0xd2>
800027b0:	0ff00713          	li	a4,255
800027b4:	86c6                	mv	a3,a7
800027b6:	f5177de3          	bleu	a7,a4,80002710 <__udivdi3+0x11a>
800027ba:	0088d693          	srli	a3,a7,0x8
800027be:	47a1                	li	a5,8
800027c0:	bf81                	j	80002710 <__udivdi3+0x11a>
800027c2:	0ff00713          	li	a4,255
800027c6:	86b2                	mv	a3,a2
800027c8:	e4c778e3          	bleu	a2,a4,80002618 <__udivdi3+0x22>
800027cc:	00865693          	srli	a3,a2,0x8
800027d0:	47a1                	li	a5,8
800027d2:	b599                	j	80002618 <__udivdi3+0x22>
800027d4:	873e                	mv	a4,a5
800027d6:	bdc9                	j	800026a8 <__udivdi3+0xb2>
800027d8:	863a                	mv	a2,a4
800027da:	bf6d                	j	80002794 <__udivdi3+0x19e>
800027dc:	00e657b3          	srl	a5,a2,a4
800027e0:	006696b3          	sll	a3,a3,t1
800027e4:	8edd                	or	a3,a3,a5
800027e6:	00e5d8b3          	srl	a7,a1,a4
800027ea:	0106df13          	srli	t5,a3,0x10
800027ee:	03e8deb3          	divu	t4,a7,t5
800027f2:	01069e13          	slli	t3,a3,0x10
800027f6:	010e5e13          	srli	t3,t3,0x10
800027fa:	00659833          	sll	a6,a1,t1
800027fe:	00e55733          	srl	a4,a0,a4
80002802:	01076833          	or	a6,a4,a6
80002806:	01085793          	srli	a5,a6,0x10
8000280a:	00661633          	sll	a2,a2,t1
8000280e:	03e8f8b3          	remu	a7,a7,t5
80002812:	03de05b3          	mul	a1,t3,t4
80002816:	08c2                	slli	a7,a7,0x10
80002818:	00f8e7b3          	or	a5,a7,a5
8000281c:	00b7f863          	bleu	a1,a5,8000282c <__udivdi3+0x236>
80002820:	97b6                	add	a5,a5,a3
80002822:	fffe8713          	addi	a4,t4,-1
80002826:	14d7fa63          	bleu	a3,a5,8000297a <__udivdi3+0x384>
8000282a:	8eba                	mv	t4,a4
8000282c:	8f8d                	sub	a5,a5,a1
8000282e:	03e7d733          	divu	a4,a5,t5
80002832:	0842                	slli	a6,a6,0x10
80002834:	01085813          	srli	a6,a6,0x10
80002838:	03e7f7b3          	remu	a5,a5,t5
8000283c:	02ee08b3          	mul	a7,t3,a4
80002840:	07c2                	slli	a5,a5,0x10
80002842:	0107e5b3          	or	a1,a5,a6
80002846:	0115f863          	bleu	a7,a1,80002856 <__udivdi3+0x260>
8000284a:	95b6                	add	a1,a1,a3
8000284c:	fff70793          	addi	a5,a4,-1
80002850:	12d5f063          	bleu	a3,a1,80002970 <__udivdi3+0x37a>
80002854:	873e                	mv	a4,a5
80002856:	0ec2                	slli	t4,t4,0x10
80002858:	6f41                	lui	t5,0x10
8000285a:	00eeeeb3          	or	t4,t4,a4
8000285e:	ffff0793          	addi	a5,t5,-1 # ffff <_tbss_end+0xffbb>
80002862:	00fef733          	and	a4,t4,a5
80002866:	010ed813          	srli	a6,t4,0x10
8000286a:	8ff1                	and	a5,a5,a2
8000286c:	8241                	srli	a2,a2,0x10
8000286e:	02f70e33          	mul	t3,a4,a5
80002872:	411585b3          	sub	a1,a1,a7
80002876:	02c70733          	mul	a4,a4,a2
8000287a:	010e5693          	srli	a3,t3,0x10
8000287e:	02f807b3          	mul	a5,a6,a5
80002882:	973e                	add	a4,a4,a5
80002884:	9736                	add	a4,a4,a3
80002886:	02c80633          	mul	a2,a6,a2
8000288a:	00f77363          	bleu	a5,a4,80002890 <__udivdi3+0x29a>
8000288e:	967a                	add	a2,a2,t5
80002890:	01075813          	srli	a6,a4,0x10
80002894:	9642                	add	a2,a2,a6
80002896:	0ac5e763          	bltu	a1,a2,80002944 <__udivdi3+0x34e>
8000289a:	08c58a63          	beq	a1,a2,8000292e <__udivdi3+0x338>
8000289e:	8576                	mv	a0,t4
800028a0:	4581                	li	a1,0
800028a2:	8082                	ret
800028a4:	01f898b3          	sll	a7,a7,t6
800028a8:	00d5d633          	srl	a2,a1,a3
800028ac:	0108df13          	srli	t5,a7,0x10
800028b0:	03e65e33          	divu	t3,a2,t5
800028b4:	00d557b3          	srl	a5,a0,a3
800028b8:	01089e93          	slli	t4,a7,0x10
800028bc:	01f59733          	sll	a4,a1,t6
800028c0:	010ede93          	srli	t4,t4,0x10
800028c4:	8f5d                	or	a4,a4,a5
800028c6:	01075593          	srli	a1,a4,0x10
800028ca:	01f51333          	sll	t1,a0,t6
800028ce:	03e676b3          	remu	a3,a2,t5
800028d2:	03ce87b3          	mul	a5,t4,t3
800028d6:	06c2                	slli	a3,a3,0x10
800028d8:	8ecd                	or	a3,a3,a1
800028da:	00f6fb63          	bleu	a5,a3,800028f0 <__udivdi3+0x2fa>
800028de:	96c6                	add	a3,a3,a7
800028e0:	fffe0613          	addi	a2,t3,-1
800028e4:	0b16e263          	bltu	a3,a7,80002988 <__udivdi3+0x392>
800028e8:	0af6f063          	bleu	a5,a3,80002988 <__udivdi3+0x392>
800028ec:	1e79                	addi	t3,t3,-2
800028ee:	96c6                	add	a3,a3,a7
800028f0:	8e9d                	sub	a3,a3,a5
800028f2:	03e6d7b3          	divu	a5,a3,t5
800028f6:	01071813          	slli	a6,a4,0x10
800028fa:	01085813          	srli	a6,a6,0x10
800028fe:	03e6f6b3          	remu	a3,a3,t5
80002902:	02fe8633          	mul	a2,t4,a5
80002906:	01069713          	slli	a4,a3,0x10
8000290a:	01076733          	or	a4,a4,a6
8000290e:	00c77b63          	bleu	a2,a4,80002924 <__udivdi3+0x32e>
80002912:	9746                	add	a4,a4,a7
80002914:	fff78693          	addi	a3,a5,-1 # ffffff <_tbss_end+0xffffbb>
80002918:	07176663          	bltu	a4,a7,80002984 <__udivdi3+0x38e>
8000291c:	06c77463          	bleu	a2,a4,80002984 <__udivdi3+0x38e>
80002920:	17f9                	addi	a5,a5,-2
80002922:	9746                	add	a4,a4,a7
80002924:	010e1593          	slli	a1,t3,0x10
80002928:	8f11                	sub	a4,a4,a2
8000292a:	8ddd                	or	a1,a1,a5
8000292c:	bd09                	j	8000273e <__udivdi3+0x148>
8000292e:	67c1                	lui	a5,0x10
80002930:	17fd                	addi	a5,a5,-1
80002932:	8f7d                	and	a4,a4,a5
80002934:	00fe7e33          	and	t3,t3,a5
80002938:	0742                	slli	a4,a4,0x10
8000293a:	006517b3          	sll	a5,a0,t1
8000293e:	9772                	add	a4,a4,t3
80002940:	f4e7ffe3          	bleu	a4,a5,8000289e <__udivdi3+0x2a8>
80002944:	fffe8513          	addi	a0,t4,-1
80002948:	4581                	li	a1,0
8000294a:	8082                	ret
8000294c:	0106d713          	srli	a4,a3,0x10
80002950:	4841                	li	a6,16
80002952:	bb9d                	j	800026c8 <__udivdi3+0xd2>
80002954:	8736                	mv	a4,a3
80002956:	4801                	li	a6,0
80002958:	bb85                	j	800026c8 <__udivdi3+0xd2>
8000295a:	0108d693          	srli	a3,a7,0x10
8000295e:	47c1                	li	a5,16
80002960:	bb45                	j	80002710 <__udivdi3+0x11a>
80002962:	01065693          	srli	a3,a2,0x10
80002966:	47c1                	li	a5,16
80002968:	b945                	j	80002618 <__udivdi3+0x22>
8000296a:	4581                	li	a1,0
8000296c:	4505                	li	a0,1
8000296e:	8082                	ret
80002970:	ef15f2e3          	bleu	a7,a1,80002854 <__udivdi3+0x25e>
80002974:	1779                	addi	a4,a4,-2
80002976:	95b6                	add	a1,a1,a3
80002978:	bdf9                	j	80002856 <__udivdi3+0x260>
8000297a:	eab7f8e3          	bleu	a1,a5,8000282a <__udivdi3+0x234>
8000297e:	1ef9                	addi	t4,t4,-2
80002980:	97b6                	add	a5,a5,a3
80002982:	b56d                	j	8000282c <__udivdi3+0x236>
80002984:	87b6                	mv	a5,a3
80002986:	bf79                	j	80002924 <__udivdi3+0x32e>
80002988:	8e32                	mv	t3,a2
8000298a:	b79d                	j	800028f0 <__udivdi3+0x2fa>
8000298c:	1579                	addi	a0,a0,-2
8000298e:	9846                	add	a6,a6,a7
80002990:	b1e5                	j	80002678 <__udivdi3+0x82>
80002992:	1579                	addi	a0,a0,-2
80002994:	97c6                	add	a5,a5,a7
80002996:	bbc1                	j	80002766 <__udivdi3+0x170>

Disassembly of section .text.__umoddi3:

80002998 <__umoddi3>:
80002998:	87b6                	mv	a5,a3
8000299a:	8832                	mv	a6,a2
8000299c:	832a                	mv	t1,a0
8000299e:	8e2e                	mv	t3,a1
800029a0:	e6d5                	bnez	a3,80002a4c <__umoddi3+0xb4>
800029a2:	0ec5fe63          	bleu	a2,a1,80002a9e <__umoddi3+0x106>
800029a6:	6741                	lui	a4,0x10
800029a8:	1ae67263          	bleu	a4,a2,80002b4c <__umoddi3+0x1b4>
800029ac:	0ff00713          	li	a4,255
800029b0:	86b2                	mv	a3,a2
800029b2:	00c77563          	bleu	a2,a4,800029bc <__umoddi3+0x24>
800029b6:	00865693          	srli	a3,a2,0x8
800029ba:	47a1                	li	a5,8
800029bc:	00001717          	auipc	a4,0x1
800029c0:	af870713          	addi	a4,a4,-1288 # 800034b4 <__clz_tab>
800029c4:	9736                	add	a4,a4,a3
800029c6:	00074683          	lbu	a3,0(a4)
800029ca:	02000893          	li	a7,32
800029ce:	97b6                	add	a5,a5,a3
800029d0:	40f888b3          	sub	a7,a7,a5
800029d4:	00088c63          	beqz	a7,800029ec <__umoddi3+0x54>
800029d8:	011595b3          	sll	a1,a1,a7
800029dc:	00f557b3          	srl	a5,a0,a5
800029e0:	01161833          	sll	a6,a2,a7
800029e4:	00b7ee33          	or	t3,a5,a1
800029e8:	01151333          	sll	t1,a0,a7
800029ec:	01085613          	srli	a2,a6,0x10
800029f0:	02ce57b3          	divu	a5,t3,a2
800029f4:	01081513          	slli	a0,a6,0x10
800029f8:	8141                	srli	a0,a0,0x10
800029fa:	01035713          	srli	a4,t1,0x10
800029fe:	02ce76b3          	remu	a3,t3,a2
80002a02:	02f507b3          	mul	a5,a0,a5
80002a06:	06c2                	slli	a3,a3,0x10
80002a08:	8f55                	or	a4,a4,a3
80002a0a:	00f77763          	bleu	a5,a4,80002a18 <__umoddi3+0x80>
80002a0e:	9742                	add	a4,a4,a6
80002a10:	01076463          	bltu	a4,a6,80002a18 <__umoddi3+0x80>
80002a14:	30f76163          	bltu	a4,a5,80002d16 <__umoddi3+0x37e>
80002a18:	8f1d                	sub	a4,a4,a5
80002a1a:	02c756b3          	divu	a3,a4,a2
80002a1e:	01031793          	slli	a5,t1,0x10
80002a22:	83c1                	srli	a5,a5,0x10
80002a24:	02c77733          	remu	a4,a4,a2
80002a28:	02d50533          	mul	a0,a0,a3
80002a2c:	0742                	slli	a4,a4,0x10
80002a2e:	8fd9                	or	a5,a5,a4
80002a30:	00a7f863          	bleu	a0,a5,80002a40 <__umoddi3+0xa8>
80002a34:	97c2                	add	a5,a5,a6
80002a36:	0107e563          	bltu	a5,a6,80002a40 <__umoddi3+0xa8>
80002a3a:	00a7f363          	bleu	a0,a5,80002a40 <__umoddi3+0xa8>
80002a3e:	97c2                	add	a5,a5,a6
80002a40:	40a78533          	sub	a0,a5,a0
80002a44:	01155533          	srl	a0,a0,a7
80002a48:	4581                	li	a1,0
80002a4a:	8082                	ret
80002a4c:	fed5efe3          	bltu	a1,a3,80002a4a <__umoddi3+0xb2>
80002a50:	67c1                	lui	a5,0x10
80002a52:	0cf6ec63          	bltu	a3,a5,80002b2a <__umoddi3+0x192>
80002a56:	010007b7          	lui	a5,0x1000
80002a5a:	28f6e563          	bltu	a3,a5,80002ce4 <__umoddi3+0x34c>
80002a5e:	0186d813          	srli	a6,a3,0x18
80002a62:	4761                	li	a4,24
80002a64:	00001797          	auipc	a5,0x1
80002a68:	a5078793          	addi	a5,a5,-1456 # 800034b4 <__clz_tab>
80002a6c:	97c2                	add	a5,a5,a6
80002a6e:	0007ce83          	lbu	t4,0(a5)
80002a72:	02000313          	li	t1,32
80002a76:	9eba                	add	t4,t4,a4
80002a78:	41d30333          	sub	t1,t1,t4
80002a7c:	0e031063          	bnez	t1,80002b5c <__umoddi3+0x1c4>
80002a80:	00b6e563          	bltu	a3,a1,80002a8a <__umoddi3+0xf2>
80002a84:	882a                	mv	a6,a0
80002a86:	00c56963          	bltu	a0,a2,80002a98 <__umoddi3+0x100>
80002a8a:	40c50833          	sub	a6,a0,a2
80002a8e:	8d95                	sub	a1,a1,a3
80002a90:	010536b3          	sltu	a3,a0,a6
80002a94:	40d58e33          	sub	t3,a1,a3
80002a98:	8542                	mv	a0,a6
80002a9a:	85f2                	mv	a1,t3
80002a9c:	8082                	ret
80002a9e:	e601                	bnez	a2,80002aa6 <__umoddi3+0x10e>
80002aa0:	4705                	li	a4,1
80002aa2:	02c75833          	divu	a6,a4,a2
80002aa6:	6741                	lui	a4,0x10
80002aa8:	08e86963          	bltu	a6,a4,80002b3a <__umoddi3+0x1a2>
80002aac:	010007b7          	lui	a5,0x1000
80002ab0:	24f86163          	bltu	a6,a5,80002cf2 <__umoddi3+0x35a>
80002ab4:	01885693          	srli	a3,a6,0x18
80002ab8:	47e1                	li	a5,24
80002aba:	00001717          	auipc	a4,0x1
80002abe:	9fa70713          	addi	a4,a4,-1542 # 800034b4 <__clz_tab>
80002ac2:	9736                	add	a4,a4,a3
80002ac4:	00074703          	lbu	a4,0(a4)
80002ac8:	02000893          	li	a7,32
80002acc:	97ba                	add	a5,a5,a4
80002ace:	40f888b3          	sub	a7,a7,a5
80002ad2:	16089663          	bnez	a7,80002c3e <__umoddi3+0x2a6>
80002ad6:	01081e13          	slli	t3,a6,0x10
80002ada:	410585b3          	sub	a1,a1,a6
80002ade:	01085613          	srli	a2,a6,0x10
80002ae2:	010e5e13          	srli	t3,t3,0x10
80002ae6:	01035713          	srli	a4,t1,0x10
80002aea:	02c5d6b3          	divu	a3,a1,a2
80002aee:	02c5f5b3          	remu	a1,a1,a2
80002af2:	03c686b3          	mul	a3,a3,t3
80002af6:	05c2                	slli	a1,a1,0x10
80002af8:	8f4d                	or	a4,a4,a1
80002afa:	00d77863          	bleu	a3,a4,80002b0a <__umoddi3+0x172>
80002afe:	9742                	add	a4,a4,a6
80002b00:	01076563          	bltu	a4,a6,80002b0a <__umoddi3+0x172>
80002b04:	00d77363          	bleu	a3,a4,80002b0a <__umoddi3+0x172>
80002b08:	9742                	add	a4,a4,a6
80002b0a:	8f15                	sub	a4,a4,a3
80002b0c:	02c75533          	divu	a0,a4,a2
80002b10:	0342                	slli	t1,t1,0x10
80002b12:	01035313          	srli	t1,t1,0x10
80002b16:	02c77733          	remu	a4,a4,a2
80002b1a:	03c50533          	mul	a0,a0,t3
80002b1e:	0742                	slli	a4,a4,0x10
80002b20:	006767b3          	or	a5,a4,t1
80002b24:	f0a7fee3          	bleu	a0,a5,80002a40 <__umoddi3+0xa8>
80002b28:	b731                	j	80002a34 <__umoddi3+0x9c>
80002b2a:	0ff00793          	li	a5,255
80002b2e:	1ad7ff63          	bleu	a3,a5,80002cec <__umoddi3+0x354>
80002b32:	0086d813          	srli	a6,a3,0x8
80002b36:	4721                	li	a4,8
80002b38:	b735                	j	80002a64 <__umoddi3+0xcc>
80002b3a:	0ff00713          	li	a4,255
80002b3e:	86c2                	mv	a3,a6
80002b40:	f7077de3          	bleu	a6,a4,80002aba <__umoddi3+0x122>
80002b44:	00885693          	srli	a3,a6,0x8
80002b48:	47a1                	li	a5,8
80002b4a:	bf85                	j	80002aba <__umoddi3+0x122>
80002b4c:	010007b7          	lui	a5,0x1000
80002b50:	1af66563          	bltu	a2,a5,80002cfa <__umoddi3+0x362>
80002b54:	01865693          	srli	a3,a2,0x18
80002b58:	47e1                	li	a5,24
80002b5a:	b58d                	j	800029bc <__umoddi3+0x24>
80002b5c:	01d658b3          	srl	a7,a2,t4
80002b60:	006696b3          	sll	a3,a3,t1
80002b64:	00d8e6b3          	or	a3,a7,a3
80002b68:	01d5d833          	srl	a6,a1,t4
80002b6c:	0106d713          	srli	a4,a3,0x10
80002b70:	02e858b3          	divu	a7,a6,a4
80002b74:	01069f13          	slli	t5,a3,0x10
80002b78:	010f5f13          	srli	t5,t5,0x10
80002b7c:	01d557b3          	srl	a5,a0,t4
80002b80:	006595b3          	sll	a1,a1,t1
80002b84:	8ddd                	or	a1,a1,a5
80002b86:	0105df93          	srli	t6,a1,0x10
80002b8a:	006617b3          	sll	a5,a2,t1
80002b8e:	00651533          	sll	a0,a0,t1
80002b92:	02e87833          	remu	a6,a6,a4
80002b96:	031f0e33          	mul	t3,t5,a7
80002b9a:	0842                	slli	a6,a6,0x10
80002b9c:	01f86633          	or	a2,a6,t6
80002ba0:	01c67863          	bleu	t3,a2,80002bb0 <__umoddi3+0x218>
80002ba4:	9636                	add	a2,a2,a3
80002ba6:	fff88813          	addi	a6,a7,-1 # ffff <_tbss_end+0xffbb>
80002baa:	16d67163          	bleu	a3,a2,80002d0c <__umoddi3+0x374>
80002bae:	88c2                	mv	a7,a6
80002bb0:	41c60633          	sub	a2,a2,t3
80002bb4:	02e65833          	divu	a6,a2,a4
80002bb8:	05c2                	slli	a1,a1,0x10
80002bba:	81c1                	srli	a1,a1,0x10
80002bbc:	02e67633          	remu	a2,a2,a4
80002bc0:	030f0f33          	mul	t5,t5,a6
80002bc4:	01061713          	slli	a4,a2,0x10
80002bc8:	8f4d                	or	a4,a4,a1
80002bca:	01e77863          	bleu	t5,a4,80002bda <__umoddi3+0x242>
80002bce:	9736                	add	a4,a4,a3
80002bd0:	fff80613          	addi	a2,a6,-1
80002bd4:	12d77763          	bleu	a3,a4,80002d02 <__umoddi3+0x36a>
80002bd8:	8832                	mv	a6,a2
80002bda:	08c2                	slli	a7,a7,0x10
80002bdc:	62c1                	lui	t0,0x10
80002bde:	0108e8b3          	or	a7,a7,a6
80002be2:	fff28813          	addi	a6,t0,-1 # ffff <_tbss_end+0xffbb>
80002be6:	0108fe33          	and	t3,a7,a6
80002bea:	0107d593          	srli	a1,a5,0x10
80002bee:	0108d893          	srli	a7,a7,0x10
80002bf2:	0107f833          	and	a6,a5,a6
80002bf6:	030e0fb3          	mul	t6,t3,a6
80002bfa:	41e70733          	sub	a4,a4,t5
80002bfe:	03088833          	mul	a6,a7,a6
80002c02:	010fd613          	srli	a2,t6,0x10
80002c06:	02be0e33          	mul	t3,t3,a1
80002c0a:	9e42                	add	t3,t3,a6
80002c0c:	9672                	add	a2,a2,t3
80002c0e:	02b888b3          	mul	a7,a7,a1
80002c12:	01067363          	bleu	a6,a2,80002c18 <__umoddi3+0x280>
80002c16:	9896                	add	a7,a7,t0
80002c18:	6841                	lui	a6,0x10
80002c1a:	187d                	addi	a6,a6,-1
80002c1c:	01065593          	srli	a1,a2,0x10
80002c20:	01067633          	and	a2,a2,a6
80002c24:	0642                	slli	a2,a2,0x10
80002c26:	010fffb3          	and	t6,t6,a6
80002c2a:	98ae                	add	a7,a7,a1
80002c2c:	967e                	add	a2,a2,t6
80002c2e:	09176463          	bltu	a4,a7,80002cb6 <__umoddi3+0x31e>
80002c32:	0f170463          	beq	a4,a7,80002d1a <__umoddi3+0x382>
80002c36:	411705b3          	sub	a1,a4,a7
80002c3a:	87b2                	mv	a5,a2
80002c3c:	a071                	j	80002cc8 <__umoddi3+0x330>
80002c3e:	01181833          	sll	a6,a6,a7
80002c42:	00f5d733          	srl	a4,a1,a5
80002c46:	01085613          	srli	a2,a6,0x10
80002c4a:	02c756b3          	divu	a3,a4,a2
80002c4e:	01081e13          	slli	t3,a6,0x10
80002c52:	00f557b3          	srl	a5,a0,a5
80002c56:	010e5e13          	srli	t3,t3,0x10
80002c5a:	011595b3          	sll	a1,a1,a7
80002c5e:	8ddd                	or	a1,a1,a5
80002c60:	0105de93          	srli	t4,a1,0x10
80002c64:	01151333          	sll	t1,a0,a7
80002c68:	02c77733          	remu	a4,a4,a2
80002c6c:	02de07b3          	mul	a5,t3,a3
80002c70:	01071693          	slli	a3,a4,0x10
80002c74:	01d6e6b3          	or	a3,a3,t4
80002c78:	00f6f863          	bleu	a5,a3,80002c88 <__umoddi3+0x2f0>
80002c7c:	96c2                	add	a3,a3,a6
80002c7e:	0106e563          	bltu	a3,a6,80002c88 <__umoddi3+0x2f0>
80002c82:	00f6f363          	bleu	a5,a3,80002c88 <__umoddi3+0x2f0>
80002c86:	96c2                	add	a3,a3,a6
80002c88:	8e9d                	sub	a3,a3,a5
80002c8a:	02c6d733          	divu	a4,a3,a2
80002c8e:	01059793          	slli	a5,a1,0x10
80002c92:	83c1                	srli	a5,a5,0x10
80002c94:	02c6f6b3          	remu	a3,a3,a2
80002c98:	02ee0733          	mul	a4,t3,a4
80002c9c:	01069593          	slli	a1,a3,0x10
80002ca0:	8ddd                	or	a1,a1,a5
80002ca2:	00e5f863          	bleu	a4,a1,80002cb2 <__umoddi3+0x31a>
80002ca6:	95c2                	add	a1,a1,a6
80002ca8:	0105e563          	bltu	a1,a6,80002cb2 <__umoddi3+0x31a>
80002cac:	00e5f363          	bleu	a4,a1,80002cb2 <__umoddi3+0x31a>
80002cb0:	95c2                	add	a1,a1,a6
80002cb2:	8d99                	sub	a1,a1,a4
80002cb4:	bd0d                	j	80002ae6 <__umoddi3+0x14e>
80002cb6:	40f607b3          	sub	a5,a2,a5
80002cba:	40d885b3          	sub	a1,a7,a3
80002cbe:	00f63633          	sltu	a2,a2,a5
80002cc2:	8d91                	sub	a1,a1,a2
80002cc4:	40b705b3          	sub	a1,a4,a1
80002cc8:	40f507b3          	sub	a5,a0,a5
80002ccc:	00f53533          	sltu	a0,a0,a5
80002cd0:	8d89                	sub	a1,a1,a0
80002cd2:	01d59eb3          	sll	t4,a1,t4
80002cd6:	0067d533          	srl	a0,a5,t1
80002cda:	00aee533          	or	a0,t4,a0
80002cde:	0065d5b3          	srl	a1,a1,t1
80002ce2:	8082                	ret
80002ce4:	0106d813          	srli	a6,a3,0x10
80002ce8:	4741                	li	a4,16
80002cea:	bbad                	j	80002a64 <__umoddi3+0xcc>
80002cec:	8836                	mv	a6,a3
80002cee:	4701                	li	a4,0
80002cf0:	bb95                	j	80002a64 <__umoddi3+0xcc>
80002cf2:	01085693          	srli	a3,a6,0x10
80002cf6:	47c1                	li	a5,16
80002cf8:	b3c9                	j	80002aba <__umoddi3+0x122>
80002cfa:	01065693          	srli	a3,a2,0x10
80002cfe:	47c1                	li	a5,16
80002d00:	b975                	j	800029bc <__umoddi3+0x24>
80002d02:	ede77be3          	bleu	t5,a4,80002bd8 <__umoddi3+0x240>
80002d06:	1879                	addi	a6,a6,-2
80002d08:	9736                	add	a4,a4,a3
80002d0a:	bdc1                	j	80002bda <__umoddi3+0x242>
80002d0c:	ebc671e3          	bleu	t3,a2,80002bae <__umoddi3+0x216>
80002d10:	18f9                	addi	a7,a7,-2
80002d12:	9636                	add	a2,a2,a3
80002d14:	bd71                	j	80002bb0 <__umoddi3+0x218>
80002d16:	9742                	add	a4,a4,a6
80002d18:	b301                	j	80002a18 <__umoddi3+0x80>
80002d1a:	f8c56ee3          	bltu	a0,a2,80002cb6 <__umoddi3+0x31e>
80002d1e:	87b2                	mv	a5,a2
80002d20:	4581                	li	a1,0
80002d22:	b75d                	j	80002cc8 <__umoddi3+0x330>

Disassembly of section .rodata.str1.4:

80002d24 <.rodata.str1.4>:
80002d24:	4844                	lw	s1,20(s0)
80002d26:	5952                	lw	s2,52(sp)
80002d28:	4e4f5453          	0x4e4f5453
80002d2c:	2045                	jal	80002dcc <__umoddi3+0x434>
80002d2e:	5250                	lw	a2,36(a2)
80002d30:	4152474f          	fnmadd.s	fa4,ft4,fs5,fs0,rmm
80002d34:	2c4d                	jal	80002fe6 <__umoddi3+0x64e>
80002d36:	5320                	lw	s0,96(a4)
80002d38:	20454d4f          	fnmadd.s	fs10,fa0,ft4,ft4,rmm
80002d3c:	49525453          	0x49525453
80002d40:	474e                	lw	a4,208(sp)
80002d42:	0000                	unimp
80002d44:	56202c43          	fmadd.q	fs8,ft0,ft2,fa0,rdn
80002d48:	7265                	lui	tp,0xffff9
80002d4a:	6e6f6973          	csrrsi	s2,0x6e6,30
80002d4e:	3220                	fld	fs0,96(a2)
80002d50:	322e                	fld	ft4,232(sp)
80002d52:	0000                	unimp
80002d54:	6844                	flw	fs1,20(s0)
80002d56:	7972                	flw	fs2,60(sp)
80002d58:	6e6f7473          	csrrci	s0,0x6e6,30
80002d5c:	2065                	jal	80002e04 <__umoddi3+0x46c>
80002d5e:	6542                	flw	fa0,16(sp)
80002d60:	636e                	flw	ft6,216(sp)
80002d62:	6d68                	flw	fa0,92(a0)
80002d64:	7261                	lui	tp,0xffff8
80002d66:	56202c6b          	0x56202c6b
80002d6a:	7265                	lui	tp,0xffff9
80002d6c:	6e6f6973          	csrrsi	s2,0x6e6,30
80002d70:	2520                	fld	fs0,72(a0)
80002d72:	00000a73          	0xa73
80002d76:	0000                	unimp
80002d78:	7250                	flw	fa2,36(a2)
80002d7a:	6172676f          	jal	a4,80029b90 <__clz_tab+0x266dc>
80002d7e:	206d                	jal	80002e28 <__umoddi3+0x490>
80002d80:	706d6f63          	bltu	s10,t1,8000349e <__umoddi3+0xb06>
80002d84:	6c69                	lui	s8,0x1a
80002d86:	6465                	lui	s0,0x19
80002d88:	7720                	flw	fs0,104(a4)
80002d8a:	7469                	lui	s0,0xffffa
80002d8c:	2068                	fld	fa0,192(s0)
80002d8e:	67657227          	0x67657227
80002d92:	7369                	lui	t1,0xffffa
80002d94:	6574                	flw	fa3,76(a0)
80002d96:	2772                	fld	fa4,280(sp)
80002d98:	6120                	flw	fs0,64(a0)
80002d9a:	7474                	flw	fa3,108(s0)
80002d9c:	6972                	flw	fs2,28(sp)
80002d9e:	7562                	flw	fa0,56(sp)
80002da0:	6574                	flw	fa3,76(a0)
80002da2:	000a                	c.slli	zero,0x2
80002da4:	7250                	flw	fa2,36(a2)
80002da6:	6172676f          	jal	a4,80029bbc <__clz_tab+0x26708>
80002daa:	206d                	jal	80002e54 <__umoddi3+0x4bc>
80002dac:	706d6f63          	bltu	s10,t1,800034ca <__clz_tab+0x16>
80002db0:	6c69                	lui	s8,0x1a
80002db2:	6465                	lui	s0,0x19
80002db4:	7720                	flw	fs0,104(a4)
80002db6:	7469                	lui	s0,0xffffa
80002db8:	6f68                	flw	fa0,92(a4)
80002dba:	7475                	lui	s0,0xffffd
80002dbc:	2720                	fld	fs0,72(a4)
80002dbe:	6572                	flw	fa0,28(sp)
80002dc0:	74736967          	0x74736967
80002dc4:	7265                	lui	tp,0xffff9
80002dc6:	74612027          	fsw	ft6,1856(sp)
80002dca:	7274                	flw	fa3,100(a2)
80002dcc:	6269                	lui	tp,0x1a
80002dce:	7475                	lui	s0,0xffffd
80002dd0:	0a65                	addi	s4,s4,25
80002dd2:	0000                	unimp
80002dd4:	6472                	flw	fs0,28(sp)
80002dd6:	6c637963          	bleu	t1,t1,800034a8 <__umoddi3+0xb10>
80002dda:	2865                	jal	80002e92 <__umoddi3+0x4fa>
80002ddc:	0029                	c.nop	10
80002dde:	0000                	unimp
80002de0:	7355                	lui	t1,0xffff5
80002de2:	6e69                	lui	t3,0x1a
80002de4:	73252067          	0x73252067
80002de8:	202c                	fld	fa1,64(s0)
80002dea:	5a48                	lw	a0,52(a2)
80002dec:	253d                	jal	8000341a <__umoddi3+0xa82>
80002dee:	0a64                	addi	s1,sp,284
80002df0:	0000                	unimp
80002df2:	0000                	unimp
80002df4:	7254                	flw	fa3,36(a2)
80002df6:	6979                	lui	s2,0x1e
80002df8:	676e                	flw	fa4,216(sp)
80002dfa:	2520                	fld	fs0,72(a0)
80002dfc:	2064                	fld	fs1,192(s0)
80002dfe:	7572                	flw	fa0,60(sp)
80002e00:	736e                	flw	ft6,248(sp)
80002e02:	7420                	flw	fs0,104(s0)
80002e04:	7268                	flw	fa0,100(a2)
80002e06:	6867756f          	jal	a0,8007a48c <__clz_tab+0x76fd8>
80002e0a:	4420                	lw	s0,72(s0)
80002e0c:	7268                	flw	fa0,100(a2)
80002e0e:	7379                	lui	t1,0xffffe
80002e10:	6f74                	flw	fa3,92(a4)
80002e12:	656e                	flw	fa0,216(sp)
80002e14:	0a3a                	slli	s4,s4,0xe
80002e16:	0000                	unimp
80002e18:	654d                	lui	a0,0x13
80002e1a:	7361                	lui	t1,0xffff8
80002e1c:	7275                	lui	tp,0xffffd
80002e1e:	6465                	lui	s0,0x19
80002e20:	7420                	flw	fs0,104(s0)
80002e22:	6d69                	lui	s10,0x1a
80002e24:	2065                	jal	80002ecc <__umoddi3+0x534>
80002e26:	6f74                	flw	fa3,92(a4)
80002e28:	6d73206f          	j	80035cfe <__clz_tab+0x3284a>
80002e2c:	6c61                	lui	s8,0x18
80002e2e:	206c                	fld	fa1,192(s0)
80002e30:	6f74                	flw	fa3,92(a4)
80002e32:	6f20                	flw	fs0,88(a4)
80002e34:	7462                	flw	fs0,56(sp)
80002e36:	6961                	lui	s2,0x18
80002e38:	206e                	fld	ft0,216(sp)
80002e3a:	656d                	lui	a0,0x1b
80002e3c:	6e61                	lui	t3,0x18
80002e3e:	6e69                	lui	t3,0x1a
80002e40:	6c756667          	0x6c756667
80002e44:	7220                	flw	fs0,96(a2)
80002e46:	7365                	lui	t1,0xffff9
80002e48:	6c75                	lui	s8,0x1d
80002e4a:	7374                	flw	fa3,100(a4)
80002e4c:	000a                	c.slli	zero,0x2
80002e4e:	0000                	unimp
80002e50:	6946                	flw	fs2,80(sp)
80002e52:	616e                	flw	ft2,216(sp)
80002e54:	206c                	fld	fa1,192(s0)
80002e56:	6176                	flw	ft2,92(sp)
80002e58:	756c                	flw	fa1,108(a0)
80002e5a:	7365                	lui	t1,0xffff9
80002e5c:	6f20                	flw	fs0,88(a4)
80002e5e:	2066                	fld	ft0,88(sp)
80002e60:	6874                	flw	fa3,84(s0)
80002e62:	2065                	jal	80002f0a <__umoddi3+0x572>
80002e64:	6176                	flw	ft2,92(sp)
80002e66:	6972                	flw	fs2,28(sp)
80002e68:	6261                	lui	tp,0x18
80002e6a:	656c                	flw	fa1,76(a0)
80002e6c:	73752073          	csrs	0x737,a0
80002e70:	6465                	lui	s0,0x19
80002e72:	6920                	flw	fs0,80(a0)
80002e74:	206e                	fld	ft0,216(sp)
80002e76:	6874                	flw	fa3,84(s0)
80002e78:	2065                	jal	80002f20 <__umoddi3+0x588>
80002e7a:	6562                	flw	fa0,24(sp)
80002e7c:	636e                	flw	ft6,216(sp)
80002e7e:	6d68                	flw	fa0,92(a0)
80002e80:	7261                	lui	tp,0xffff8
80002e82:	000a3a6b          	0xa3a6b
80002e86:	0000                	unimp
80002e88:	6e49                	lui	t3,0x12
80002e8a:	5f74                	lw	a3,124(a4)
80002e8c:	626f6c47          	fmsub.d	fs8,ft10,ft6,fa2,unknown
80002e90:	203a                	fld	ft0,392(sp)
80002e92:	2020                	fld	fs0,64(s0)
80002e94:	2020                	fld	fs0,64(s0)
80002e96:	2020                	fld	fs0,64(s0)
80002e98:	2020                	fld	fs0,64(s0)
80002e9a:	2020                	fld	fs0,64(s0)
80002e9c:	2520                	fld	fs0,72(a0)
80002e9e:	0a64                	addi	s1,sp,284
80002ea0:	0000                	unimp
80002ea2:	0000                	unimp
80002ea4:	2020                	fld	fs0,64(s0)
80002ea6:	2020                	fld	fs0,64(s0)
80002ea8:	2020                	fld	fs0,64(s0)
80002eaa:	2020                	fld	fs0,64(s0)
80002eac:	756f6873          	csrrsi	a6,0x756,30
80002eb0:	646c                	flw	fa1,76(s0)
80002eb2:	6220                	flw	fs0,64(a2)
80002eb4:	3a65                	jal	8000286c <__udivdi3+0x276>
80002eb6:	2020                	fld	fs0,64(s0)
80002eb8:	2520                	fld	fs0,72(a0)
80002eba:	0a64                	addi	s1,sp,284
80002ebc:	0000                	unimp
80002ebe:	0000                	unimp
80002ec0:	6f42                	flw	ft10,16(sp)
80002ec2:	475f6c6f          	jal	s8,800f9b36 <__clz_tab+0xf6682>
80002ec6:	6f6c                	flw	fa1,92(a4)
80002ec8:	3a62                	fld	fs4,56(sp)
80002eca:	2020                	fld	fs0,64(s0)
80002ecc:	2020                	fld	fs0,64(s0)
80002ece:	2020                	fld	fs0,64(s0)
80002ed0:	2020                	fld	fs0,64(s0)
80002ed2:	2020                	fld	fs0,64(s0)
80002ed4:	2520                	fld	fs0,72(a0)
80002ed6:	0a64                	addi	s1,sp,284
80002ed8:	0000                	unimp
80002eda:	0000                	unimp
80002edc:	315f6843          	fmadd.s	fa6,ft10,fs5,ft6,unknown
80002ee0:	475f 6f6c 3a62      	0x3a626f6c475f
80002ee6:	2020                	fld	fs0,64(s0)
80002ee8:	2020                	fld	fs0,64(s0)
80002eea:	2020                	fld	fs0,64(s0)
80002eec:	2020                	fld	fs0,64(s0)
80002eee:	2020                	fld	fs0,64(s0)
80002ef0:	2520                	fld	fs0,72(a0)
80002ef2:	00000a63          	beqz	zero,80002f06 <__umoddi3+0x56e>
80002ef6:	0000                	unimp
80002ef8:	2020                	fld	fs0,64(s0)
80002efa:	2020                	fld	fs0,64(s0)
80002efc:	2020                	fld	fs0,64(s0)
80002efe:	2020                	fld	fs0,64(s0)
80002f00:	756f6873          	csrrsi	a6,0x756,30
80002f04:	646c                	flw	fa1,76(s0)
80002f06:	6220                	flw	fs0,64(a2)
80002f08:	3a65                	jal	800028c0 <__udivdi3+0x2ca>
80002f0a:	2020                	fld	fs0,64(s0)
80002f0c:	2520                	fld	fs0,72(a0)
80002f0e:	00000a63          	beqz	zero,80002f22 <__umoddi3+0x58a>
80002f12:	0000                	unimp
80002f14:	325f6843          	fmadd.d	fa6,ft10,ft5,ft6,unknown
80002f18:	475f 6f6c 3a62      	0x3a626f6c475f
80002f1e:	2020                	fld	fs0,64(s0)
80002f20:	2020                	fld	fs0,64(s0)
80002f22:	2020                	fld	fs0,64(s0)
80002f24:	2020                	fld	fs0,64(s0)
80002f26:	2020                	fld	fs0,64(s0)
80002f28:	2520                	fld	fs0,72(a0)
80002f2a:	00000a63          	beqz	zero,80002f3e <__umoddi3+0x5a6>
80002f2e:	0000                	unimp
80002f30:	7241                	lui	tp,0xffff0
80002f32:	5f72                	lw	t5,60(sp)
80002f34:	5f31                	li	t5,-20
80002f36:	626f6c47          	fmsub.d	fs8,ft10,ft6,fa2,unknown
80002f3a:	3a5d385b          	0x3a5d385b
80002f3e:	2020                	fld	fs0,64(s0)
80002f40:	2020                	fld	fs0,64(s0)
80002f42:	2020                	fld	fs0,64(s0)
80002f44:	2520                	fld	fs0,72(a0)
80002f46:	0a64                	addi	s1,sp,284
80002f48:	0000                	unimp
80002f4a:	0000                	unimp
80002f4c:	7241                	lui	tp,0xffff0
80002f4e:	5f72                	lw	t5,60(sp)
80002f50:	5f32                	lw	t5,44(sp)
80002f52:	626f6c47          	fmsub.d	fs8,ft10,ft6,fa2,unknown
80002f56:	5b5d385b          	0x5b5d385b
80002f5a:	203a5d37          	lui	s10,0x203a5
80002f5e:	2020                	fld	fs0,64(s0)
80002f60:	2520                	fld	fs0,72(a0)
80002f62:	0a64                	addi	s1,sp,284
80002f64:	0000                	unimp
80002f66:	0000                	unimp
80002f68:	2020                	fld	fs0,64(s0)
80002f6a:	2020                	fld	fs0,64(s0)
80002f6c:	2020                	fld	fs0,64(s0)
80002f6e:	2020                	fld	fs0,64(s0)
80002f70:	756f6873          	csrrsi	a6,0x756,30
80002f74:	646c                	flw	fa1,76(s0)
80002f76:	6220                	flw	fs0,64(a2)
80002f78:	3a65                	jal	80002930 <__udivdi3+0x33a>
80002f7a:	2020                	fld	fs0,64(s0)
80002f7c:	4e20                	lw	s0,88(a2)
80002f7e:	6d75                	lui	s10,0x1d
80002f80:	6562                	flw	fa0,24(sp)
80002f82:	5f72                	lw	t5,60(sp)
80002f84:	525f664f          	fnmadd.d	fa2,ft10,ft5,fa0,unknown
80002f88:	6e75                	lui	t3,0x1d
80002f8a:	202b2073          	csrs	hedeleg,s6
80002f8e:	3031                	jal	8000279a <__udivdi3+0x1a4>
80002f90:	000a                	c.slli	zero,0x2
80002f92:	0000                	unimp
80002f94:	7450                	flw	fa2,44(s0)
80002f96:	5f72                	lw	t5,60(sp)
80002f98:	626f6c47          	fmsub.d	fs8,ft10,ft6,fa2,unknown
80002f9c:	3e2d                	jal	80002ad6 <__umoddi3+0x13e>
80002f9e:	000a                	c.slli	zero,0x2
80002fa0:	2020                	fld	fs0,64(s0)
80002fa2:	7450                	flw	fa2,44(s0)
80002fa4:	5f72                	lw	t5,60(sp)
80002fa6:	706d6f43          	fmadd.s	ft10,fs10,ft6,fa4,unknown
80002faa:	203a                	fld	ft0,392(sp)
80002fac:	2020                	fld	fs0,64(s0)
80002fae:	2020                	fld	fs0,64(s0)
80002fb0:	2020                	fld	fs0,64(s0)
80002fb2:	2020                	fld	fs0,64(s0)
80002fb4:	2520                	fld	fs0,72(a0)
80002fb6:	0a64                	addi	s1,sp,284
80002fb8:	0000                	unimp
80002fba:	0000                	unimp
80002fbc:	2020                	fld	fs0,64(s0)
80002fbe:	2020                	fld	fs0,64(s0)
80002fc0:	2020                	fld	fs0,64(s0)
80002fc2:	2020                	fld	fs0,64(s0)
80002fc4:	756f6873          	csrrsi	a6,0x756,30
80002fc8:	646c                	flw	fa1,76(s0)
80002fca:	6220                	flw	fs0,64(a2)
80002fcc:	3a65                	jal	80002984 <__udivdi3+0x38e>
80002fce:	2020                	fld	fs0,64(s0)
80002fd0:	2820                	fld	fs0,80(s0)
80002fd2:	6d69                	lui	s10,0x1a
80002fd4:	6c70                	flw	fa2,92(s0)
80002fd6:	6d65                	lui	s10,0x19
80002fd8:	6e65                	lui	t3,0x19
80002fda:	6174                	flw	fa3,68(a0)
80002fdc:	6974                	flw	fa3,84(a0)
80002fde:	642d6e6f          	jal	t3,800d9620 <__clz_tab+0xd616c>
80002fe2:	7065                	c.lui	zero,0xffff9
80002fe4:	6e65                	lui	t3,0x19
80002fe6:	6564                	flw	fs1,76(a0)
80002fe8:	746e                	flw	fs0,248(sp)
80002fea:	0a29                	addi	s4,s4,10
80002fec:	0000                	unimp
80002fee:	0000                	unimp
80002ff0:	2020                	fld	fs0,64(s0)
80002ff2:	6944                	flw	fs1,20(a0)
80002ff4:	3a726373          	csrrsi	t1,0x3a7,4
80002ff8:	2020                	fld	fs0,64(s0)
80002ffa:	2020                	fld	fs0,64(s0)
80002ffc:	2020                	fld	fs0,64(s0)
80002ffe:	2020                	fld	fs0,64(s0)
80003000:	2020                	fld	fs0,64(s0)
80003002:	2020                	fld	fs0,64(s0)
80003004:	2520                	fld	fs0,72(a0)
80003006:	0a64                	addi	s1,sp,284
80003008:	0000                	unimp
8000300a:	0000                	unimp
8000300c:	2020                	fld	fs0,64(s0)
8000300e:	6e45                	lui	t3,0x11
80003010:	6d75                	lui	s10,0x1d
80003012:	435f 6d6f 3a70      	0x3a706d6f435f
80003018:	2020                	fld	fs0,64(s0)
8000301a:	2020                	fld	fs0,64(s0)
8000301c:	2020                	fld	fs0,64(s0)
8000301e:	2020                	fld	fs0,64(s0)
80003020:	2520                	fld	fs0,72(a0)
80003022:	0a64                	addi	s1,sp,284
80003024:	0000                	unimp
80003026:	0000                	unimp
80003028:	2020                	fld	fs0,64(s0)
8000302a:	6e49                	lui	t3,0x12
8000302c:	5f74                	lw	a3,124(a4)
8000302e:	706d6f43          	fmadd.s	ft10,fs10,ft6,fa4,unknown
80003032:	203a                	fld	ft0,392(sp)
80003034:	2020                	fld	fs0,64(s0)
80003036:	2020                	fld	fs0,64(s0)
80003038:	2020                	fld	fs0,64(s0)
8000303a:	2020                	fld	fs0,64(s0)
8000303c:	2520                	fld	fs0,72(a0)
8000303e:	0a64                	addi	s1,sp,284
80003040:	0000                	unimp
80003042:	0000                	unimp
80003044:	2020                	fld	fs0,64(s0)
80003046:	5f727453          	0x5f727453
8000304a:	706d6f43          	fmadd.s	ft10,fs10,ft6,fa4,unknown
8000304e:	203a                	fld	ft0,392(sp)
80003050:	2020                	fld	fs0,64(s0)
80003052:	2020                	fld	fs0,64(s0)
80003054:	2020                	fld	fs0,64(s0)
80003056:	2020                	fld	fs0,64(s0)
80003058:	2520                	fld	fs0,72(a0)
8000305a:	00000a73          	0xa73
8000305e:	0000                	unimp
80003060:	2020                	fld	fs0,64(s0)
80003062:	2020                	fld	fs0,64(s0)
80003064:	2020                	fld	fs0,64(s0)
80003066:	2020                	fld	fs0,64(s0)
80003068:	756f6873          	csrrsi	a6,0x756,30
8000306c:	646c                	flw	fa1,76(s0)
8000306e:	6220                	flw	fs0,64(a2)
80003070:	3a65                	jal	80002a28 <__umoddi3+0x90>
80003072:	2020                	fld	fs0,64(s0)
80003074:	4420                	lw	s0,72(s0)
80003076:	5248                	lw	a0,36(a2)
80003078:	5359                	li	t1,-10
8000307a:	4f54                	lw	a3,28(a4)
8000307c:	454e                	lw	a0,208(sp)
8000307e:	5020                	lw	s0,96(s0)
80003080:	4f52                	lw	t5,20(sp)
80003082:	4d415247          	0x4d415247
80003086:	202c                	fld	fa1,64(s0)
80003088:	454d4f53          	0x454d4f53
8000308c:	5320                	lw	s0,96(a4)
8000308e:	5254                	lw	a3,36(a2)
80003090:	4e49                	li	t3,18
80003092:	00000a47          	fmsub.s	fs4,ft0,ft0,ft0,rne
80003096:	0000                	unimp
80003098:	654e                	flw	fa0,208(sp)
8000309a:	7478                	flw	fa4,108(s0)
8000309c:	505f 7274 475f      	0x475f7274505f
800030a2:	6f6c                	flw	fa1,92(a4)
800030a4:	2d62                	fld	fs10,24(sp)
800030a6:	0a3e                	slli	s4,s4,0xf
800030a8:	0000                	unimp
800030aa:	0000                	unimp
800030ac:	2020                	fld	fs0,64(s0)
800030ae:	2020                	fld	fs0,64(s0)
800030b0:	2020                	fld	fs0,64(s0)
800030b2:	2020                	fld	fs0,64(s0)
800030b4:	756f6873          	csrrsi	a6,0x756,30
800030b8:	646c                	flw	fa1,76(s0)
800030ba:	6220                	flw	fs0,64(a2)
800030bc:	3a65                	jal	80002a74 <__umoddi3+0xdc>
800030be:	2020                	fld	fs0,64(s0)
800030c0:	2820                	fld	fs0,80(s0)
800030c2:	6d69                	lui	s10,0x1a
800030c4:	6c70                	flw	fa2,92(s0)
800030c6:	6d65                	lui	s10,0x19
800030c8:	6e65                	lui	t3,0x19
800030ca:	6174                	flw	fa3,68(a0)
800030cc:	6974                	flw	fa3,84(a0)
800030ce:	642d6e6f          	jal	t3,800d9710 <__clz_tab+0xd625c>
800030d2:	7065                	c.lui	zero,0xffff9
800030d4:	6e65                	lui	t3,0x19
800030d6:	6564                	flw	fs1,76(a0)
800030d8:	746e                	flw	fs0,248(sp)
800030da:	2c29                	jal	800032f4 <__umoddi3+0x95c>
800030dc:	7320                	flw	fs0,96(a4)
800030de:	6d61                	lui	s10,0x18
800030e0:	2065                	jal	80003188 <__umoddi3+0x7f0>
800030e2:	7361                	lui	t1,0xffff8
800030e4:	6120                	flw	fs0,64(a0)
800030e6:	6f62                	flw	ft10,24(sp)
800030e8:	6576                	flw	fa0,92(sp)
800030ea:	000a                	c.slli	zero,0x2
800030ec:	6e49                	lui	t3,0x12
800030ee:	5f74                	lw	a3,124(a4)
800030f0:	5f31                	li	t5,-20
800030f2:	6f4c                	flw	fa1,28(a4)
800030f4:	20203a63          	0x20203a63
800030f8:	2020                	fld	fs0,64(s0)
800030fa:	2020                	fld	fs0,64(s0)
800030fc:	2020                	fld	fs0,64(s0)
800030fe:	2020                	fld	fs0,64(s0)
80003100:	2520                	fld	fs0,72(a0)
80003102:	0a64                	addi	s1,sp,284
80003104:	0000                	unimp
80003106:	0000                	unimp
80003108:	6e49                	lui	t3,0x12
8000310a:	5f74                	lw	a3,124(a4)
8000310c:	5f32                	lw	t5,44(sp)
8000310e:	6f4c                	flw	fa1,28(a4)
80003110:	20203a63          	0x20203a63
80003114:	2020                	fld	fs0,64(s0)
80003116:	2020                	fld	fs0,64(s0)
80003118:	2020                	fld	fs0,64(s0)
8000311a:	2020                	fld	fs0,64(s0)
8000311c:	2520                	fld	fs0,72(a0)
8000311e:	0a64                	addi	s1,sp,284
80003120:	0000                	unimp
80003122:	0000                	unimp
80003124:	6e49                	lui	t3,0x12
80003126:	5f74                	lw	a3,124(a4)
80003128:	6f4c5f33          	0x6f4c5f33
8000312c:	20203a63          	0x20203a63
80003130:	2020                	fld	fs0,64(s0)
80003132:	2020                	fld	fs0,64(s0)
80003134:	2020                	fld	fs0,64(s0)
80003136:	2020                	fld	fs0,64(s0)
80003138:	2520                	fld	fs0,72(a0)
8000313a:	0a64                	addi	s1,sp,284
8000313c:	0000                	unimp
8000313e:	0000                	unimp
80003140:	6e45                	lui	t3,0x11
80003142:	6d75                	lui	s10,0x1d
80003144:	4c5f 636f 203a      	0x203a636f4c5f
8000314a:	2020                	fld	fs0,64(s0)
8000314c:	2020                	fld	fs0,64(s0)
8000314e:	2020                	fld	fs0,64(s0)
80003150:	2020                	fld	fs0,64(s0)
80003152:	2020                	fld	fs0,64(s0)
80003154:	2520                	fld	fs0,72(a0)
80003156:	0a64                	addi	s1,sp,284
80003158:	0000                	unimp
8000315a:	0000                	unimp
8000315c:	5f727453          	0x5f727453
80003160:	5f31                	li	t5,-20
80003162:	6f4c                	flw	fa1,28(a4)
80003164:	20203a63          	0x20203a63
80003168:	2020                	fld	fs0,64(s0)
8000316a:	2020                	fld	fs0,64(s0)
8000316c:	2020                	fld	fs0,64(s0)
8000316e:	2020                	fld	fs0,64(s0)
80003170:	2520                	fld	fs0,72(a0)
80003172:	00000a73          	0xa73
80003176:	0000                	unimp
80003178:	2020                	fld	fs0,64(s0)
8000317a:	2020                	fld	fs0,64(s0)
8000317c:	2020                	fld	fs0,64(s0)
8000317e:	2020                	fld	fs0,64(s0)
80003180:	756f6873          	csrrsi	a6,0x756,30
80003184:	646c                	flw	fa1,76(s0)
80003186:	6220                	flw	fs0,64(a2)
80003188:	3a65                	jal	80002b40 <__umoddi3+0x1a8>
8000318a:	2020                	fld	fs0,64(s0)
8000318c:	4420                	lw	s0,72(s0)
8000318e:	5248                	lw	a0,36(a2)
80003190:	5359                	li	t1,-10
80003192:	4f54                	lw	a3,28(a4)
80003194:	454e                	lw	a0,208(sp)
80003196:	5020                	lw	s0,96(s0)
80003198:	4f52                	lw	t5,20(sp)
8000319a:	4d415247          	0x4d415247
8000319e:	202c                	fld	fa1,64(s0)
800031a0:	2731                	jal	800038ac <__clz_tab+0x3f8>
800031a2:	53205453          	0x53205453
800031a6:	5254                	lw	a3,36(a2)
800031a8:	4e49                	li	t3,18
800031aa:	00000a47          	fmsub.s	fs4,ft0,ft0,ft0,rne
800031ae:	0000                	unimp
800031b0:	5f727453          	0x5f727453
800031b4:	5f32                	lw	t5,44(sp)
800031b6:	6f4c                	flw	fa1,28(a4)
800031b8:	20203a63          	0x20203a63
800031bc:	2020                	fld	fs0,64(s0)
800031be:	2020                	fld	fs0,64(s0)
800031c0:	2020                	fld	fs0,64(s0)
800031c2:	2020                	fld	fs0,64(s0)
800031c4:	2520                	fld	fs0,72(a0)
800031c6:	00000a73          	0xa73
800031ca:	0000                	unimp
800031cc:	2020                	fld	fs0,64(s0)
800031ce:	2020                	fld	fs0,64(s0)
800031d0:	2020                	fld	fs0,64(s0)
800031d2:	2020                	fld	fs0,64(s0)
800031d4:	756f6873          	csrrsi	a6,0x756,30
800031d8:	646c                	flw	fa1,76(s0)
800031da:	6220                	flw	fs0,64(a2)
800031dc:	3a65                	jal	80002b94 <__umoddi3+0x1fc>
800031de:	2020                	fld	fs0,64(s0)
800031e0:	4420                	lw	s0,72(s0)
800031e2:	5248                	lw	a0,36(a2)
800031e4:	5359                	li	t1,-10
800031e6:	4f54                	lw	a3,28(a4)
800031e8:	454e                	lw	a0,208(sp)
800031ea:	5020                	lw	s0,96(s0)
800031ec:	4f52                	lw	t5,20(sp)
800031ee:	4d415247          	0x4d415247
800031f2:	202c                	fld	fa1,64(s0)
800031f4:	2732                	fld	fa4,264(sp)
800031f6:	444e                	lw	s0,208(sp)
800031f8:	5320                	lw	s0,96(a4)
800031fa:	5254                	lw	a3,36(a2)
800031fc:	4e49                	li	t3,18
800031fe:	00000a47          	fmsub.s	fs4,ft0,ft0,ft0,rne
80003202:	0000                	unimp
80003204:	694d                	lui	s2,0x13
80003206:	736f7263          	bleu	s6,t5,8000392a <__clz_tab+0x476>
8000320a:	6365                	lui	t1,0x19
8000320c:	73646e6f          	jal	t3,80049942 <__clz_tab+0x4648e>
80003210:	6620                	flw	fs0,72(a2)
80003212:	6f20726f          	jal	tp,8000a904 <__clz_tab+0x7450>
80003216:	656e                	flw	fa0,216(sp)
80003218:	7220                	flw	fs0,96(a2)
8000321a:	6e75                	lui	t3,0x1d
8000321c:	7420                	flw	fs0,104(s0)
8000321e:	7268                	flw	fa0,100(a2)
80003220:	6867756f          	jal	a0,8007a8a6 <__clz_tab+0x773f2>
80003224:	4420                	lw	s0,72(s0)
80003226:	7268                	flw	fa0,100(a2)
80003228:	7379                	lui	t1,0xffffe
8000322a:	6f74                	flw	fa3,92(a4)
8000322c:	656e                	flw	fa0,216(sp)
8000322e:	203a                	fld	ft0,392(sp)
80003230:	6c25                	lui	s8,0x9
80003232:	0a64                	addi	s1,sp,284
80003234:	0000                	unimp
80003236:	0000                	unimp
80003238:	6844                	flw	fs1,20(s0)
8000323a:	7972                	flw	fs2,60(sp)
8000323c:	6e6f7473          	csrrci	s0,0x6e6,30
80003240:	7365                	lui	t1,0xffff9
80003242:	7020                	flw	fs0,96(s0)
80003244:	7265                	lui	tp,0xffff9
80003246:	5320                	lw	s0,96(a4)
80003248:	6365                	lui	t1,0x19
8000324a:	3a646e6f          	jal	t3,800495f0 <__clz_tab+0x4613c>
8000324e:	2020                	fld	fs0,64(s0)
80003250:	2020                	fld	fs0,64(s0)
80003252:	2020                	fld	fs0,64(s0)
80003254:	2020                	fld	fs0,64(s0)
80003256:	2020                	fld	fs0,64(s0)
80003258:	2020                	fld	fs0,64(s0)
8000325a:	2020                	fld	fs0,64(s0)
8000325c:	2020                	fld	fs0,64(s0)
8000325e:	2020                	fld	fs0,64(s0)
80003260:	2020                	fld	fs0,64(s0)
80003262:	2020                	fld	fs0,64(s0)
80003264:	6c25                	lui	s8,0x9
80003266:	0a64                	addi	s1,sp,284
80003268:	0000                	unimp
8000326a:	0000                	unimp
8000326c:	4844                	lw	s1,20(s0)
8000326e:	5952                	lw	s2,52(sp)
80003270:	4e4f5453          	0x4e4f5453
80003274:	2045                	jal	80003314 <__umoddi3+0x97c>
80003276:	5250                	lw	a2,36(a2)
80003278:	4152474f          	fnmadd.s	fa4,ft4,fs5,fs0,rmm
8000327c:	2c4d                	jal	8000352e <__clz_tab+0x7a>
8000327e:	3120                	fld	fs0,96(a0)
80003280:	20545327          	0x20545327
80003284:	49525453          	0x49525453
80003288:	474e                	lw	a4,208(sp)
8000328a:	0000                	unimp
8000328c:	4844                	lw	s1,20(s0)
8000328e:	5952                	lw	s2,52(sp)
80003290:	4e4f5453          	0x4e4f5453
80003294:	2045                	jal	80003334 <__umoddi3+0x99c>
80003296:	5250                	lw	a2,36(a2)
80003298:	4152474f          	fnmadd.s	fa4,ft4,fs5,fs0,rmm
8000329c:	2c4d                	jal	8000354e <__clz_tab+0x9a>
8000329e:	3220                	fld	fs0,96(a2)
800032a0:	20444e27          	fsq	ft4,540(s0) # 1921c <_tbss_end+0x191d8>
800032a4:	49525453          	0x49525453
800032a8:	474e                	lw	a4,208(sp)
800032aa:	0000                	unimp
800032ac:	4844                	lw	s1,20(s0)
800032ae:	5952                	lw	s2,52(sp)
800032b0:	4e4f5453          	0x4e4f5453
800032b4:	2045                	jal	80003354 <__umoddi3+0x9bc>
800032b6:	5250                	lw	a2,36(a2)
800032b8:	4152474f          	fnmadd.s	fa4,ft4,fs5,fs0,rmm
800032bc:	2c4d                	jal	8000356e <__clz_tab+0xba>
800032be:	3320                	fld	fs0,96(a4)
800032c0:	20445227          	0x20445227
800032c4:	49525453          	0x49525453
800032c8:	474e                	lw	a4,208(sp)
800032ca:	0000                	unimp
800032cc:	6e28                	flw	fa0,88(a2)
800032ce:	6c75                	lui	s8,0x1d
800032d0:	296c                	fld	fa1,208(a0)
800032d2:	0000                	unimp
800032d4:	636d                	lui	t1,0x1b
800032d6:	6379                	lui	t1,0x1e
800032d8:	656c                	flw	fa1,76(a0)
800032da:	0000                	unimp
800032dc:	696d                	lui	s2,0x1b
800032de:	736e                	flw	ft6,248(sp)
800032e0:	7274                	flw	fa3,100(a2)
800032e2:	7465                	lui	s0,0xffff9
800032e4:	0000                	unimp
800032e6:	0000                	unimp
800032e8:	6d49                	lui	s10,0x12
800032ea:	6c70                	flw	fa2,92(s0)
800032ec:	6d65                	lui	s10,0x19
800032ee:	6e65                	lui	t3,0x19
800032f0:	2074                	fld	fa3,192(s0)
800032f2:	616d                	addi	sp,sp,240
800032f4:	6e69                	lui	t3,0x1a
800032f6:	2928                	fld	fa0,80(a0)
800032f8:	202c                	fld	fa1,64(s0)
800032fa:	6f66                	flw	ft10,88(sp)
800032fc:	000a216f          	jal	sp,800a52fc <__clz_tab+0xa1e48>
80003300:	7325                	lui	t1,0xfffe9
80003302:	3d20                	fld	fs0,120(a0)
80003304:	2520                	fld	fs0,72(a0)
80003306:	0a64                	addi	s1,sp,284
80003308:	0000                	unimp
	...

Disassembly of section .rodata:

8000330c <.rodata>:
8000330c:	e286                	fsw	ft1,68(sp)
8000330e:	ffff                	0xffff
80003310:	e2d6                	fsw	fs5,68(sp)
80003312:	ffff                	0xffff
80003314:	e28e                	fsw	ft3,68(sp)
80003316:	ffff                	0xffff
80003318:	e2d6                	fsw	fs5,68(sp)
8000331a:	ffff                	0xffff
8000331c:	e2d6                	fsw	fs5,68(sp)
8000331e:	ffff                	0xffff
80003320:	e2d6                	fsw	fs5,68(sp)
80003322:	ffff                	0xffff
80003324:	e2d6                	fsw	fs5,68(sp)
80003326:	ffff                	0xffff
80003328:	e19e                	fsw	ft7,192(sp)
8000332a:	ffff                	0xffff
8000332c:	e2d6                	fsw	fs5,68(sp)
8000332e:	ffff                	0xffff
80003330:	e2d6                	fsw	fs5,68(sp)
80003332:	ffff                	0xffff
80003334:	e1b8                	fsw	fa4,64(a1)
80003336:	ffff                	0xffff
80003338:	e1c4                	fsw	fs1,4(a1)
8000333a:	ffff                	0xffff
8000333c:	e2d6                	fsw	fs5,68(sp)
8000333e:	ffff                	0xffff
80003340:	e1d6                	fsw	fs5,192(sp)
80003342:	ffff                	0xffff
80003344:	e1e2                	fsw	fs8,192(sp)
80003346:	ffff                	0xffff
80003348:	e1e2                	fsw	fs8,192(sp)
8000334a:	ffff                	0xffff
8000334c:	e1e2                	fsw	fs8,192(sp)
8000334e:	ffff                	0xffff
80003350:	e1e2                	fsw	fs8,192(sp)
80003352:	ffff                	0xffff
80003354:	e1e2                	fsw	fs8,192(sp)
80003356:	ffff                	0xffff
80003358:	e1e2                	fsw	fs8,192(sp)
8000335a:	ffff                	0xffff
8000335c:	e1e2                	fsw	fs8,192(sp)
8000335e:	ffff                	0xffff
80003360:	e1e2                	fsw	fs8,192(sp)
80003362:	ffff                	0xffff
80003364:	e1e2                	fsw	fs8,192(sp)
80003366:	ffff                	0xffff
80003368:	e2d6                	fsw	fs5,68(sp)
8000336a:	ffff                	0xffff
8000336c:	e2d6                	fsw	fs5,68(sp)
8000336e:	ffff                	0xffff
80003370:	e2d6                	fsw	fs5,68(sp)
80003372:	ffff                	0xffff
80003374:	e2d6                	fsw	fs5,68(sp)
80003376:	ffff                	0xffff
80003378:	e2d6                	fsw	fs5,68(sp)
8000337a:	ffff                	0xffff
8000337c:	e2d6                	fsw	fs5,68(sp)
8000337e:	ffff                	0xffff
80003380:	e2d6                	fsw	fs5,68(sp)
80003382:	ffff                	0xffff
80003384:	e2d6                	fsw	fs5,68(sp)
80003386:	ffff                	0xffff
80003388:	e2d6                	fsw	fs5,68(sp)
8000338a:	ffff                	0xffff
8000338c:	e2d6                	fsw	fs5,68(sp)
8000338e:	ffff                	0xffff
80003390:	e2d6                	fsw	fs5,68(sp)
80003392:	ffff                	0xffff
80003394:	e2d6                	fsw	fs5,68(sp)
80003396:	ffff                	0xffff
80003398:	e2d6                	fsw	fs5,68(sp)
8000339a:	ffff                	0xffff
8000339c:	e2d6                	fsw	fs5,68(sp)
8000339e:	ffff                	0xffff
800033a0:	e2d6                	fsw	fs5,68(sp)
800033a2:	ffff                	0xffff
800033a4:	e2d6                	fsw	fs5,68(sp)
800033a6:	ffff                	0xffff
800033a8:	e2d6                	fsw	fs5,68(sp)
800033aa:	ffff                	0xffff
800033ac:	e2d6                	fsw	fs5,68(sp)
800033ae:	ffff                	0xffff
800033b0:	e2d6                	fsw	fs5,68(sp)
800033b2:	ffff                	0xffff
800033b4:	e2d6                	fsw	fs5,68(sp)
800033b6:	ffff                	0xffff
800033b8:	e2d6                	fsw	fs5,68(sp)
800033ba:	ffff                	0xffff
800033bc:	e2d6                	fsw	fs5,68(sp)
800033be:	ffff                	0xffff
800033c0:	e2d6                	fsw	fs5,68(sp)
800033c2:	ffff                	0xffff
800033c4:	e2d6                	fsw	fs5,68(sp)
800033c6:	ffff                	0xffff
800033c8:	e2d6                	fsw	fs5,68(sp)
800033ca:	ffff                	0xffff
800033cc:	e2d6                	fsw	fs5,68(sp)
800033ce:	ffff                	0xffff
800033d0:	e2d6                	fsw	fs5,68(sp)
800033d2:	ffff                	0xffff
800033d4:	e2d6                	fsw	fs5,68(sp)
800033d6:	ffff                	0xffff
800033d8:	e2d6                	fsw	fs5,68(sp)
800033da:	ffff                	0xffff
800033dc:	e2d6                	fsw	fs5,68(sp)
800033de:	ffff                	0xffff
800033e0:	e2d6                	fsw	fs5,68(sp)
800033e2:	ffff                	0xffff
800033e4:	e2d6                	fsw	fs5,68(sp)
800033e6:	ffff                	0xffff
800033e8:	e2d6                	fsw	fs5,68(sp)
800033ea:	ffff                	0xffff
800033ec:	e2d6                	fsw	fs5,68(sp)
800033ee:	ffff                	0xffff
800033f0:	e2d6                	fsw	fs5,68(sp)
800033f2:	ffff                	0xffff
800033f4:	e2d6                	fsw	fs5,68(sp)
800033f6:	ffff                	0xffff
800033f8:	e2d6                	fsw	fs5,68(sp)
800033fa:	ffff                	0xffff
800033fc:	e2d6                	fsw	fs5,68(sp)
800033fe:	ffff                	0xffff
80003400:	e2d6                	fsw	fs5,68(sp)
80003402:	ffff                	0xffff
80003404:	e2d6                	fsw	fs5,68(sp)
80003406:	ffff                	0xffff
80003408:	e2d6                	fsw	fs5,68(sp)
8000340a:	ffff                	0xffff
8000340c:	e216                	fsw	ft5,4(sp)
8000340e:	ffff                	0xffff
80003410:	e226                	fsw	fs1,4(sp)
80003412:	ffff                	0xffff
80003414:	e2d6                	fsw	fs5,68(sp)
80003416:	ffff                	0xffff
80003418:	e2d6                	fsw	fs5,68(sp)
8000341a:	ffff                	0xffff
8000341c:	e2d6                	fsw	fs5,68(sp)
8000341e:	ffff                	0xffff
80003420:	e2d6                	fsw	fs5,68(sp)
80003422:	ffff                	0xffff
80003424:	e2d6                	fsw	fs5,68(sp)
80003426:	ffff                	0xffff
80003428:	e2d6                	fsw	fs5,68(sp)
8000342a:	ffff                	0xffff
8000342c:	e2d6                	fsw	fs5,68(sp)
8000342e:	ffff                	0xffff
80003430:	e264                	fsw	fs1,68(a2)
80003432:	ffff                	0xffff
80003434:	e2d6                	fsw	fs5,68(sp)
80003436:	ffff                	0xffff
80003438:	e2d6                	fsw	fs5,68(sp)
8000343a:	ffff                	0xffff
8000343c:	e0c0                	fsw	fs0,4(s1)
8000343e:	ffff                	0xffff
80003440:	e178                	fsw	fa4,68(a0)
80003442:	ffff                	0xffff
80003444:	e2d6                	fsw	fs5,68(sp)
80003446:	ffff                	0xffff
80003448:	e2d6                	fsw	fs5,68(sp)
8000344a:	ffff                	0xffff
8000344c:	e298                	fsw	fa4,0(a3)
8000344e:	ffff                	0xffff
80003450:	e2d6                	fsw	fs5,68(sp)
80003452:	ffff                	0xffff
80003454:	e26e                	fsw	fs11,4(sp)
80003456:	ffff                	0xffff
80003458:	e2d6                	fsw	fs5,68(sp)
8000345a:	ffff                	0xffff
8000345c:	e2d6                	fsw	fs5,68(sp)
8000345e:	ffff                	0xffff
80003460:	e280                	fsw	fs0,0(a3)
80003462:	ffff                	0xffff

Disassembly of section .eh_frame:

80003464 <.eh_frame>:
80003464:	0010                	0x10
80003466:	0000                	unimp
80003468:	0000                	unimp
8000346a:	0000                	unimp
8000346c:	7a01                	lui	s4,0xfffe0
8000346e:	0052                	c.slli	zero,0x14
80003470:	7c01                	lui	s8,0xfffe0
80003472:	0101                	addi	sp,sp,0
80003474:	00020d1b          	0x20d1b
80003478:	0010                	0x10
8000347a:	0000                	unimp
8000347c:	0018                	0x18
8000347e:	0000                	unimp
80003480:	eda4                	fsw	fs1,88(a1)
80003482:	ffff                	0xffff
80003484:	03d2                	slli	t2,t2,0x14
80003486:	0000                	unimp
80003488:	0000                	unimp
8000348a:	0000                	unimp
8000348c:	0010                	0x10
8000348e:	0000                	unimp
80003490:	002c                	addi	a1,sp,8
80003492:	0000                	unimp
80003494:	f162                	fsw	fs8,160(sp)
80003496:	ffff                	0xffff
80003498:	03a2                	slli	t2,t2,0x8
8000349a:	0000                	unimp
8000349c:	0000                	unimp
8000349e:	0000                	unimp
800034a0:	0010                	0x10
800034a2:	0000                	unimp
800034a4:	0040                	addi	s0,sp,4
800034a6:	0000                	unimp
800034a8:	f4f0                	fsw	fa2,108(s1)
800034aa:	ffff                	0xffff
800034ac:	038c                	addi	a1,sp,448
800034ae:	0000                	unimp
800034b0:	0000                	unimp
	...

Disassembly of section .rodata.__clz_tab:

800034b4 <__clz_tab>:
800034b4:	0100                	addi	s0,sp,128
800034b6:	0202                	slli	tp,tp,0x0
800034b8:	03030303          	lb	t1,48(t1) # fffe9030 <_end+0x6ffe67f0>
800034bc:	0404                	addi	s1,sp,512
800034be:	0404                	addi	s1,sp,512
800034c0:	0404                	addi	s1,sp,512
800034c2:	0404                	addi	s1,sp,512
800034c4:	0505                	addi	a0,a0,1
800034c6:	0505                	addi	a0,a0,1
800034c8:	0505                	addi	a0,a0,1
800034ca:	0505                	addi	a0,a0,1
800034cc:	0505                	addi	a0,a0,1
800034ce:	0505                	addi	a0,a0,1
800034d0:	0505                	addi	a0,a0,1
800034d2:	0505                	addi	a0,a0,1
800034d4:	0606                	slli	a2,a2,0x1
800034d6:	0606                	slli	a2,a2,0x1
800034d8:	0606                	slli	a2,a2,0x1
800034da:	0606                	slli	a2,a2,0x1
800034dc:	0606                	slli	a2,a2,0x1
800034de:	0606                	slli	a2,a2,0x1
800034e0:	0606                	slli	a2,a2,0x1
800034e2:	0606                	slli	a2,a2,0x1
800034e4:	0606                	slli	a2,a2,0x1
800034e6:	0606                	slli	a2,a2,0x1
800034e8:	0606                	slli	a2,a2,0x1
800034ea:	0606                	slli	a2,a2,0x1
800034ec:	0606                	slli	a2,a2,0x1
800034ee:	0606                	slli	a2,a2,0x1
800034f0:	0606                	slli	a2,a2,0x1
800034f2:	0606                	slli	a2,a2,0x1
800034f4:	07070707          	0x7070707
800034f8:	07070707          	0x7070707
800034fc:	07070707          	0x7070707
80003500:	07070707          	0x7070707
80003504:	07070707          	0x7070707
80003508:	07070707          	0x7070707
8000350c:	07070707          	0x7070707
80003510:	07070707          	0x7070707
80003514:	07070707          	0x7070707
80003518:	07070707          	0x7070707
8000351c:	07070707          	0x7070707
80003520:	07070707          	0x7070707
80003524:	07070707          	0x7070707
80003528:	07070707          	0x7070707
8000352c:	07070707          	0x7070707
80003530:	07070707          	0x7070707
80003534:	0808                	addi	a0,sp,16
80003536:	0808                	addi	a0,sp,16
80003538:	0808                	addi	a0,sp,16
8000353a:	0808                	addi	a0,sp,16
8000353c:	0808                	addi	a0,sp,16
8000353e:	0808                	addi	a0,sp,16
80003540:	0808                	addi	a0,sp,16
80003542:	0808                	addi	a0,sp,16
80003544:	0808                	addi	a0,sp,16
80003546:	0808                	addi	a0,sp,16
80003548:	0808                	addi	a0,sp,16
8000354a:	0808                	addi	a0,sp,16
8000354c:	0808                	addi	a0,sp,16
8000354e:	0808                	addi	a0,sp,16
80003550:	0808                	addi	a0,sp,16
80003552:	0808                	addi	a0,sp,16
80003554:	0808                	addi	a0,sp,16
80003556:	0808                	addi	a0,sp,16
80003558:	0808                	addi	a0,sp,16
8000355a:	0808                	addi	a0,sp,16
8000355c:	0808                	addi	a0,sp,16
8000355e:	0808                	addi	a0,sp,16
80003560:	0808                	addi	a0,sp,16
80003562:	0808                	addi	a0,sp,16
80003564:	0808                	addi	a0,sp,16
80003566:	0808                	addi	a0,sp,16
80003568:	0808                	addi	a0,sp,16
8000356a:	0808                	addi	a0,sp,16
8000356c:	0808                	addi	a0,sp,16
8000356e:	0808                	addi	a0,sp,16
80003570:	0808                	addi	a0,sp,16
80003572:	0808                	addi	a0,sp,16
80003574:	0808                	addi	a0,sp,16
80003576:	0808                	addi	a0,sp,16
80003578:	0808                	addi	a0,sp,16
8000357a:	0808                	addi	a0,sp,16
8000357c:	0808                	addi	a0,sp,16
8000357e:	0808                	addi	a0,sp,16
80003580:	0808                	addi	a0,sp,16
80003582:	0808                	addi	a0,sp,16
80003584:	0808                	addi	a0,sp,16
80003586:	0808                	addi	a0,sp,16
80003588:	0808                	addi	a0,sp,16
8000358a:	0808                	addi	a0,sp,16
8000358c:	0808                	addi	a0,sp,16
8000358e:	0808                	addi	a0,sp,16
80003590:	0808                	addi	a0,sp,16
80003592:	0808                	addi	a0,sp,16
80003594:	0808                	addi	a0,sp,16
80003596:	0808                	addi	a0,sp,16
80003598:	0808                	addi	a0,sp,16
8000359a:	0808                	addi	a0,sp,16
8000359c:	0808                	addi	a0,sp,16
8000359e:	0808                	addi	a0,sp,16
800035a0:	0808                	addi	a0,sp,16
800035a2:	0808                	addi	a0,sp,16
800035a4:	0808                	addi	a0,sp,16
800035a6:	0808                	addi	a0,sp,16
800035a8:	0808                	addi	a0,sp,16
800035aa:	0808                	addi	a0,sp,16
800035ac:	0808                	addi	a0,sp,16
800035ae:	0808                	addi	a0,sp,16
800035b0:	0808                	addi	a0,sp,16
800035b2:	0808                	addi	a0,sp,16

Disassembly of section .sbss:

90000000 <Dhrystones_Per_Second>:
90000000:	0000                	unimp
	...

90000004 <Microseconds>:
90000004:	0000                	unimp
	...

90000008 <User_Time>:
90000008:	0000                	unimp
	...

9000000c <End_Time>:
9000000c:	0000                	unimp
	...

90000010 <Begin_Time>:
90000010:	0000                	unimp
	...

90000014 <Done>:
90000014:	0000                	unimp
	...

90000018 <Reg>:
90000018:	0000                	unimp
	...

9000001c <Ch_2_Glob>:
	...

9000001d <Ch_1_Glob>:
9000001d:	0000                	unimp
	...

90000020 <Bool_Glob>:
90000020:	0000                	unimp
	...

90000024 <Int_Glob>:
90000024:	0000                	unimp
	...

90000028 <Next_Ptr_Glob>:
90000028:	0000                	unimp
	...

9000002c <Ptr_Glob>:
9000002c:	0000                	unimp
	...

90000030 <counter_names>:
	...

90000038 <counters>:
	...

Disassembly of section .bss:

90000040 <Arr_1_Glob>:
	...

90000108 <Arr_2_Glob>:
	...

Disassembly of section .tbss:

90002840 <_tls_data>:
	...

Disassembly of section .comment:

00000000 <.comment>:
   0:	3a434347          	fmsub.d	ft6,ft6,ft4,ft7,rmm
   4:	2820                	fld	fs0,80(s0)
   6:	20554e47          	fmsub.s	ft8,fa0,ft5,ft4,rmm
   a:	434d                	li	t1,19
   c:	2055                	jal	b0 <_tbss_end+0x6c>
   e:	6345                	lui	t1,0x11
  10:	696c                	flw	fa1,84(a0)
  12:	7370                	flw	fa2,100(a4)
  14:	2065                	jal	bc <_tbss_end+0x78>
  16:	4952                	lw	s2,20(sp)
  18:	562d4353          	0x562d4353
  1c:	4520                	lw	s0,72(a0)
  1e:	626d                	lui	tp,0x1b
  20:	6465                	lui	s0,0x19
  22:	6564                	flw	fs1,76(a0)
  24:	2064                	fld	fs1,192(s0)
  26:	2c434347          	0x2c434347
  2a:	3620                	fld	fs0,104(a2)
  2c:	2d34                	fld	fa3,88(a0)
  2e:	6962                	flw	fs2,24(sp)
  30:	7374                	flw	fa3,100(a4)
  32:	2029                	jal	3c <_tdata_begin+0x3c>
  34:	2e322e37          	lui	t3,0x2e322
  38:	0030                	addi	a2,sp,8
